ccopy_reg
_reconstructor
p0
(cnetworkx.classes.graph
Graph
p1
c__builtin__
object
p2
Ntp3
Rp4
(dp5
S'node'
p6
(dp7
I289794
(dp8
S'Node Label'
p9
S' Protein'
p10
ssI402947
(dp11
g9
S' Protein'
p12
ssI292869
(dp13
g9
S' Protein'
p14
ssI275462
(dp15
g9
S' Protein'
p16
ssI391177
(dp17
g9
S' Protein'
p18
ssI285194
(dp19
g9
S' Protein'
p20
ssI405849
(dp21
g9
S' Protein'
p22
ssI247386
(dp23
g9
S' Article'
p24
ssI392750
(dp25
g9
S' Protein'
p26
ssI345138
(dp27
g9
S' Protein'
p28
ssI395836
(dp29
g9
S' Protein'
p30
ssI393790
(dp31
g9
S' Protein'
p32
ssI289857
(dp33
g9
S' Protein'
p34
ssI397892
(dp35
g9
S' Protein'
p36
ssI289364
(dp37
g9
S' Article'
p38
ssI316506
(dp39
g9
S' Protein'
p40
ssI287334
(dp41
g9
S' Protein'
p42
ssI396905
(dp43
g9
S' Protein'
p44
ssI389738
(dp45
g9
S' Protein'
p46
ssI404588
(dp47
g9
S' Protein'
p48
ssI252021
(dp49
g9
S' Protein'
p50
ssI394359
(dp51
g9
S' Protein'
p52
ssI290424
(dp53
g9
S' Protein'
p54
ssI394876
(dp55
g9
S' Protein'
p56
ssI209534
(dp57
g9
S' Protein'
p58
ssI394880
(dp59
g9
S' Protein'
p60
ssI330369
(dp61
g9
S' Protein'
p62
ssI430700
(dp63
g9
S' Protein'
p64
ssI289425
(dp65
g9
S' Protein'
p66
ssI395924
(dp67
g9
S' Protein'
p68
ssI409238
(dp69
g9
S' Protein'
p70
ssI238744
(dp71
g9
S' Protein'
p72
ssI238745
(dp73
g9
S' Protein'
p74
ssI426688
(dp75
g9
S' Protein'
p76
ssI392645
(dp77
g9
S' Protein'
p78
ssI398501
(dp79
g9
S' Protein'
p80
ssI399526
(dp81
g9
S' Protein'
p82
ssI293033
(dp83
g9
S' Protein'
p84
ssI907946
(dp85
g9
S' Protein'
p86
ssI406706
(dp87
g9
S' Protein'
p88
ssI391348
(dp89
g9
S' Protein'
p90
ssI244405
(dp91
g9
S' Protein'
p92
ssI339638
(dp93
g9
S' Protein'
p94
ssI386232
(dp95
g9
S' Protein'
p96
ssI311994
(dp97
g9
S' Protein'
p98
ssI42174
(dp99
g9
S' Gene'
p100
ssI906944
(dp101
g9
S' Protein'
p102
ssI292036
(dp103
g9
S' Protein'
p104
ssI217804
(dp105
g9
S' Protein'
p106
ssI391891
(dp107
g9
S' Protein'
p108
ssI393949
(dp109
g9
S' Protein'
p110
ssI405214
(dp111
g9
S' Protein'
p112
ssI396528
(dp113
g9
S' Protein'
p114
ssI4342
(dp115
g9
S' MolecularFunction'
p116
ssI914681
(dp117
g9
S' Protein'
p118
ssI908547
(dp119
g9
S' Protein'
p120
ssI407302
(dp121
g9
S' Protein'
p122
ssI168716
(dp123
g9
S' Domain'
p124
ssI523822
(dp125
g9
S' Gene'
p126
ssI434966
(dp127
g9
S' Protein'
p128
ssI336667
(dp129
g9
S' Protein'
p130
ssI277802
(dp131
g9
S' Protein'
p132
ssI226092
(dp133
g9
S' Protein'
p134
ssI320816
(dp135
g9
S' Protein'
p136
ssI223033
(dp137
g9
S' Protein'
p138
ssI230207
(dp139
g9
S' Protein'
p140
ssI41284
(dp141
g9
S' Gene'
p142
ssI406853
(dp143
g9
S' Protein'
p144
ssI168777
(dp145
g9
S' Domain'
p146
ssI374617
(dp147
g9
S' Protein'
p148
ssI406881
(dp149
g9
S' Protein'
p150
ssI447842
(dp151
g9
S' Protein'
p152
ssI405353
(dp153
g9
S' Protein'
p154
ssI289643
(dp155
g9
S' Protein'
p156
ssI1396
(dp157
g9
S' BiologicalProcess'
p158
ssI950654
(dp159
g9
S' Protein'
p160
ssI394624
(dp161
g9
S' Protein'
p162
ssI921992
(dp163
g9
S' Protein'
p164
ssI18323
(dp165
g9
S' BiologicalProcess'
p166
ssI395668
(dp167
g9
S' Protein'
p168
ssI393621
(dp169
g9
S' Protein'
p170
ssI404887
(dp171
g9
S' Protein'
p172
ssI447899
(dp173
g9
S' Protein'
p174
ssI263581
(dp175
g9
S' Protein'
p176
ssI239523
(dp177
g9
S' Protein'
p178
ssI394153
(dp179
g9
S' Protein'
p180
ssI910767
(dp181
g9
S' Protein'
p182
ssI254060
(dp183
g9
S' Protein'
p184
ssI390580
(dp185
g9
S' Protein'
p186
ssI391102
(dp187
g9
S' Protein'
p188
ssI164291
(dp189
g9
S' ActiveSite'
p190
ssI387525
(dp191
g9
S' Protein'
p192
ssI401867
(dp193
g9
S' Protein'
p194
ssI922060
(dp195
g9
S' Protein'
p196
ssI391119
(dp197
g9
S' Protein'
p198
ssI925655
(dp199
g9
S' Protein'
p200
ssI277989
(dp201
g9
S' Protein'
p202
ssI406511
(dp203
g9
S' Protein'
p204
ssI290803
(dp205
g9
S' Protein'
p206
ssI406005
(dp207
g9
S' Protein'
p208
ssI919034
(dp209
g9
S' Protein'
p210
sssS'graph'
p211
(dp212
sS'edge'
p213
(dp214
I289794
(dp215
I1396
(dp216
S'Edge Probability'
p217
F0.276584
ssI289364
(dp218
g217
F0.04878
ssI277989
(dp219
g217
F0.092851
ssI42174
(dp220
g217
F0.039228
sssI402947
(dp221
I406005
(dp222
g217
F0.081213
ssI42174
(dp223
g217
F0.027459
sssI292869
(dp224
I285194
(dp225
g217
F0.14936
ssI397892
(dp226
g217
F0.137034
ssI277989
(dp227
g217
F0.134331
sssI275462
(dp228
I921992
(dp229
g217
F0.128578
ssI285194
(dp230
g217
F0.121036
ssI950654
(dp231
g217
F0.268743
sssI391177
(dp232
I405849
(dp233
g217
F0.132119
ssI277802
(dp234
g217
F0.117972
ssI391348
(dp235
g217
F0.161619
ssI392645
(dp236
g217
F0.092931
ssI406853
(dp237
g217
F0.092081
sssI285194
(dp238
I921992
(dp239
g217
F0.093778
ssI289857
(dp240
g217
F0.160235
ssI919034
(dp241
g217
F0.187115
ssI292869
g225
sI275462
g230
ssI405849
(dp242
I394624
(dp243
g217
F0.130612
ssI406881
(dp244
g217
F0.094131
ssI289643
(dp245
g217
F0.151697
ssI392645
(dp246
g217
F0.099182
ssI405353
(dp247
g217
F0.0938
ssI394359
(dp248
g217
F0.092893
ssI910767
(dp249
g217
F0.094666
ssI395668
(dp250
g217
F0.090861
ssI393621
(dp251
g217
F0.104588
ssI925655
(dp252
g217
F0.091114
ssI391177
g233
sI395836
(dp253
g217
F0.15215
sssI247386
(dp254
I336667
(dp255
g217
F0.028174
ssI252021
(dp256
g217
F0.036517
sssI523822
(dp257
I389738
(dp258
g217
F0.9
ssI1396
(dp259
g217
F0.262817
ssI42174
(dp260
g217
F0.041509
sssI345138
(dp261
I4342
(dp262
g217
F0.357009
sssI395836
(dp263
I394624
(dp264
g217
F0.1153
ssI405849
g253
ssI393790
(dp265
I396905
(dp266
g217
F0.134542
ssI406511
(dp267
g217
F0.120092
ssI287334
(dp268
g217
F0.139681
ssI289425
(dp269
g217
F0.104454
sssI289857
(dp270
I285194
g240
ssI397892
(dp271
I277802
(dp272
g217
F0.10133
ssI292869
g226
sI287334
(dp273
g217
F0.10547
sssI289364
(dp274
I289794
g218
sI277989
(dp275
g217
F0.047119
ssI293033
(dp276
g217
F0.034146
ssI390580
(dp277
g217
F0.034146
ssI244405
(dp278
g217
F0.046173
ssI394359
(dp279
g217
F0.034146
sssI316506
(dp280
I168777
(dp281
g217
F0.211474
ssI164291
(dp282
g217
F0.210856
sssI287334
(dp283
I906944
(dp284
g217
F0.135283
ssI397892
g273
sI907946
(dp285
g217
F0.096571
ssI217804
(dp286
g217
F0.127498
ssI392750
(dp287
g217
F0.100087
ssI406005
(dp288
g217
F0.424554
ssI4342
(dp289
g217
F0.527998
ssI393790
g268
ssI396905
(dp290
I311994
(dp291
g217
F0.147994
ssI1396
(dp292
g217
F0.189723
ssI277989
(dp293
g217
F0.112202
ssI393790
g266
ssI389738
(dp294
I277802
(dp295
g217
F0.136692
ssI523822
g258
sI230207
(dp296
g217
F0.096318
sssI430700
(dp297
I164291
(dp298
g217
F0.210856
sssI252021
(dp299
I247386
g256
sI164291
(dp300
g217
F0.301223
sssI394359
(dp301
I405849
g248
sI406511
(dp302
g217
F0.16228
ssI289364
g279
sI405353
(dp303
g217
F0.089791
sssI290424
(dp304
I289643
(dp305
g217
F0.097194
ssI277989
(dp306
g217
F0.096392
sssI394876
(dp307
I311994
(dp308
g217
F0.115724
ssI390580
(dp309
g217
F0.097543
sssI209534
(dp310
I164291
(dp311
g217
F0.301223
sssI394880
(dp312
I263581
(dp313
g217
F0.116505
sssI330369
(dp314
I164291
(dp315
g217
F0.210856
sssI404588
(dp316
I906944
(dp317
g217
F0.170171
ssI1396
(dp318
g217
F0.189723
ssI42174
(dp319
g217
F0.027459
sssI289425
(dp320
I393790
g269
ssI395924
(dp321
I906944
(dp322
g217
F0.120405
sssI409238
(dp323
I168777
(dp324
g217
F0.209127
ssI164291
(dp325
g217
F0.210856
sssI238744
(dp326
I164291
(dp327
g217
F0.301223
sssI238745
(dp328
I164291
(dp329
g217
F0.301223
sssI426688
(dp330
I164291
(dp331
g217
F0.210856
sssI387525
(dp332
I164291
(dp333
g217
F0.210856
sssI398501
(dp334
I906944
(dp335
g217
F0.310075
sssI399526
(dp336
I406005
(dp337
g217
F0.080647
sssI293033
(dp338
I289364
g276
sI406853
(dp339
g217
F0.161529
sssI907946
(dp340
I239523
(dp341
g217
F0.149157
ssI277989
(dp342
g217
F0.153701
ssI393949
(dp343
g217
F0.113763
ssI287334
g285
sI391119
(dp344
g217
F0.102364
sssI406706
(dp345
I277802
(dp346
g217
F0.116284
ssI42174
(dp347
g217
F0.027459
sssI391348
(dp348
I391177
g235
sI277802
(dp349
g217
F0.094321
ssI914681
(dp350
g217
F0.126097
sssI244405
(dp351
I405353
(dp352
g217
F0.103311
ssI289364
g278
sI263581
(dp353
g217
F0.133559
ssI42174
(dp354
g217
F0.039228
sssI339638
(dp355
I164291
(dp356
g217
F0.210856
sssI386232
(dp357
I164291
(dp358
g217
F0.210856
sssI311994
(dp359
I277989
(dp360
g217
F0.179401
ssI396905
g291
sI277802
(dp361
g217
F0.101746
ssI226092
(dp362
g217
F0.158838
ssI392750
(dp363
g217
F0.092896
ssI406511
(dp364
g217
F0.095352
ssI394153
(dp365
g217
F0.095088
ssI394876
g308
sI263581
(dp366
g217
F0.157217
sssI42174
(dp367
I394624
(dp368
g217
F0.027459
ssI289794
g220
sI402947
g223
sI922060
(dp369
g217
F0.039228
ssI404588
g319
sI523822
g260
sI406706
g347
sI390580
(dp370
g217
F0.027459
ssI244405
g354
sI263581
(dp371
g217
F0.039228
ssI391102
(dp372
g217
F0.027459
sssI906944
(dp373
I398501
g335
sI407302
(dp374
g217
F0.13141
ssI404588
g317
sI287334
g284
sI391119
(dp375
g217
F0.094452
ssI395924
g322
sI950654
(dp376
g217
F0.187925
sssI292036
(dp377
I164291
(dp378
g217
F0.210856
ssI41284
(dp379
g217
F0.025287
sssI217804
(dp380
I239523
(dp381
g217
F0.10497
ssI226092
(dp382
g217
F0.092337
ssI287334
g286
ssI391891
(dp383
I406853
(dp384
g217
F0.12065
sssI393949
(dp385
I907946
g343
ssI405214
(dp386
I164291
(dp387
g217
F0.210856
sssI396528
(dp388
I392750
(dp389
g217
F0.106107
sssI4342
(dp390
I345138
g262
sI287334
g289
ssI914681
(dp391
I391348
g350
sI393621
(dp392
g217
F0.08502
sssI908547
(dp393
I392750
(dp394
g217
F0.128192
sssI407302
(dp395
I906944
g374
ssI168716
(dp396
I392750
(dp397
g217
F0.308219
sssI392750
(dp398
I908547
g394
sI287334
g287
sI168716
g397
sI226092
(dp399
g217
F0.150215
ssI396528
g389
sI18323
(dp400
g217
F0.268108
ssI394153
(dp401
g217
F0.108752
ssI311994
g363
sI239523
(dp402
g217
F0.112919
ssI230207
(dp403
g217
F0.097658
sssI434966
(dp404
I164291
(dp405
g217
F0.210856
sssI336667
(dp406
I247386
g255
sI164291
(dp407
g217
F0.210856
sssI277802
(dp408
I164291
(dp409
g217
F0.301223
ssI397892
g272
sI391177
g234
sI389738
g295
sI406706
g346
sI290803
(dp410
g217
F0.101122
ssI391348
g349
sI311994
g361
ssI226092
(dp411
I311994
g362
sI239523
(dp412
g217
F0.176042
ssI217804
g382
sI392750
g399
ssI320816
(dp413
I164291
(dp414
g217
F0.210856
sssI223033
(dp415
I164291
(dp416
g217
F0.301223
sssI230207
(dp417
I389738
g296
sI1396
(dp418
g217
F0.267162
ssI392750
g403
ssI41284
(dp419
I447899
(dp420
g217
F0.025287
ssI292036
g379
ssI406853
(dp421
I391177
g237
sI391891
g384
sI1396
(dp422
g217
F0.183261
ssI293033
g339
ssI168777
(dp423
I316506
g281
sI409238
g324
ssI374617
(dp424
I164291
(dp425
g217
F0.210856
sssI406881
(dp426
I405849
g244
ssI447842
(dp427
I164291
(dp428
g217
F0.210856
sssI405353
(dp429
I393621
(dp430
g217
F0.125279
ssI405849
g247
sI244405
g352
sI394359
g303
ssI289643
(dp431
I290424
g305
sI405849
g245
ssI1396
(dp432
I289794
g216
sI406853
g422
sI396905
g292
sI404588
g318
sI523822
g259
sI230207
g418
ssI950654
(dp433
I906944
g376
sI275462
g231
ssI394624
(dp434
I405849
g243
sI395836
g264
sI42174
g368
ssI921992
(dp435
I285194
g239
sI275462
g229
ssI18323
(dp436
I392750
g400
ssI395668
(dp437
I405849
g250
ssI393621
(dp438
I405849
g251
sI914681
g392
sI405353
g430
ssI404887
(dp439
I406005
(dp440
g217
F0.081593
sssI447899
(dp441
I164291
(dp442
g217
F0.210856
ssI41284
g420
ssI263581
(dp443
I394880
g313
sI311994
g366
sI244405
g353
sI42174
g371
ssI239523
(dp444
I217804
g381
sI907946
g341
sI226092
g412
sI392750
g402
ssI394153
(dp445
I311994
g365
sI392750
g401
ssI910767
(dp446
I405849
g249
ssI254060
(dp447
I164291
(dp448
g217
F0.301223
sssI390580
(dp449
I394876
g309
sI289364
g277
sI42174
g370
ssI391102
(dp450
I277989
(dp451
g217
F0.108095
ssI42174
g372
ssI164291
(dp452
I330369
g315
sI409238
g325
sI430700
g298
sI434966
g405
sI238744
g327
sI238745
g329
sI447899
g442
sI336667
g407
sI277802
g409
sI320816
g414
sI339638
g356
sI386232
g358
sI223033
g416
sI426688
g331
sI292036
g378
sI387525
g333
sI374617
g425
sI316506
g282
sI405214
g387
sI447842
g428
sI254060
g448
sI252021
g300
sI209534
g311
ssI392645
(dp453
I391177
g236
sI405849
g246
ssI401867
(dp454
I406005
(dp455
g217
F0.082511
sssI922060
(dp456
I42174
g369
ssI391119
(dp457
I906944
g375
sI907946
g344
ssI925655
(dp458
I405849
g252
ssI277989
(dp459
I289794
g219
sI292869
g227
sI396905
g293
sI907946
g342
sI290803
(dp460
g217
F0.130271
ssI289364
g275
sI290424
g306
sI311994
g360
sI391102
g451
ssI406511
(dp461
I311994
g364
sI393790
g267
sI394359
g302
ssI290803
(dp462
I277802
g410
sI277989
g460
ssI406005
(dp463
I401867
g455
sI402947
g222
sI287334
g288
sI399526
g337
sI404887
g440
ssI919034
(dp464
I285194
g241
sssS'adj'
p465
g214
sb.