ccopy_reg
_reconstructor
p0
(cnetworkx.classes.graph
Graph
p1
c__builtin__
object
p2
Ntp3
Rp4
(dp5
S'node'
p6
(dp7
I466946
(dp8
S'Node Label'
p9
S' Gene'
p10
ssI204804
(dp11
g9
S' Protein'
p12
ssI202758
(dp13
g9
S' Protein'
p14
ssI221193
(dp15
g9
S' Protein'
p16
ssI776203
(dp17
g9
S' Article'
p18
ssI452621
(dp19
g9
S' Protein'
p20
ssI165902
(dp21
g9
S' Domain'
p22
ssI2063
(dp23
g9
S' MolecularFunction'
p24
ssI927760
(dp25
g9
S' Protein'
p26
ssI202769
(dp27
g9
S' Protein'
p28
ssI509973
(dp29
g9
S' Gene'
p30
ssI157719
(dp31
g9
S' Article'
p32
ssI376470
(dp33
g9
S' Protein'
p34
ssI657436
(dp35
g9
S' Article'
p36
ssI948570
(dp37
g9
S' Protein'
p38
ssI6174
(dp39
g9
S' BiologicalProcess'
p40
ssI51233
(dp41
g9
S' Gene'
p42
ssI171811
(dp43
g9
S' Domain'
p44
ssI2090
(dp45
g9
S' BiologicalProcess'
p46
ssI32812
(dp47
g9
S' Gene'
p48
ssI368687
(dp49
g9
S' Protein'
p50
ssI174128
(dp51
g9
S' Domain'
p52
ssI49
(dp53
g9
S' MolecularFunction'
p54
ssI254002
(dp55
g9
S' Protein'
p56
ssI329779
(dp57
g9
S' Protein'
p58
ssI895028
(dp59
g9
S' HomologGroup'
p60
ssI251959
(dp61
g9
S' Protein'
p62
ssI58
(dp63
g9
S' MolecularFunction'
p64
ssI905276
(dp65
g9
S' Protein'
p66
ssI163901
(dp67
g9
S' Domain'
p68
ssI444480
(dp69
g9
S' Protein'
p70
ssI479926
(dp71
g9
S' Gene'
p72
ssI61510
(dp73
g9
S' GenomicContext'
p74
ssI245831
(dp75
g9
S' Protein'
p76
ssI927816
(dp77
g9
S' Protein'
p78
ssI387146
(dp79
g9
S' Protein'
p80
ssI20558
(dp81
g9
S' BiologicalProcess'
p82
ssI509965
(dp83
g9
S' Gene'
p84
ssI575568
(dp85
g9
S' Gene'
p86
ssI905298
(dp87
g9
S' Protein'
p88
ssI83
(dp89
g9
S' BiologicalProcess'
p90
ssI880725
(dp91
g9
S' Gene'
p92
ssI213007
(dp93
g9
S' Protein'
p94
ssI270430
(dp95
g9
S' Protein'
p96
ssI479327
(dp97
g9
S' Gene'
p98
ssI321637
(dp99
g9
S' Protein'
p100
ssI854119
(dp101
g9
S' GenomicContext'
p102
ssI2152
(dp103
g9
S' BiologicalProcess'
p104
ssI4203
(dp105
g9
S' MolecularFunction'
p106
ssI217196
(dp107
g9
S' Protein'
p108
ssI217198
(dp109
g9
S' Protein'
p110
ssI61551
(dp111
g9
S' GenomicContext'
p112
ssI577648
(dp113
g9
S' Article'
p114
ssI335985
(dp115
g9
S' Protein'
p116
ssI217202
(dp117
g9
S' Article'
p118
ssI6262
(dp119
g9
S' BiologicalProcess'
p120
ssI172151
(dp121
g9
S' Domain'
p122
ssI247931
(dp123
g9
S' Protein'
p124
ssI2069
(dp125
g9
S' BiologicalProcess'
p126
ssI923780
(dp127
g9
S' Protein'
p128
ssI462987
(dp129
g9
S' Gene'
p130
ssI233616
(dp131
g9
S' Protein'
p132
ssI416792
(dp133
g9
S' Protein'
p134
ssI233619
(dp135
g9
S' Protein'
p136
ssI249669
(dp137
g9
S' Protein'
p138
ssI366420
(dp139
g9
S' Protein'
p140
ssI264346
(dp141
g9
S' Protein'
p142
ssI469147
(dp143
g9
S' Gene'
p144
ssI921756
(dp145
g9
S' Protein'
p146
ssI565957
(dp147
g9
S' Gene'
p148
ssI942242
(dp149
g9
S' Protein'
p150
ssI907429
(dp151
g9
S' Protein'
p152
ssI826396
(dp153
g9
S' GenomicContext'
p154
ssI444587
(dp155
g9
S' Protein'
p156
ssI428204
(dp157
g9
S' Protein'
p158
ssI286893
(dp159
g9
S' Article'
p160
ssI911537
(dp161
g9
S' Protein'
p162
ssI227506
(dp163
g9
S' Protein'
p164
ssI464683
(dp165
g9
S' Gene'
p166
ssI946360
(dp167
g9
S' Protein'
p168
ssI241849
(dp169
g9
S' Protein'
p170
ssI360634
(dp171
g9
S' Protein'
p172
ssI381117
(dp173
g9
S' Protein'
p174
ssI28863
(dp175
g9
S' Gene'
p176
ssI225474
(dp177
g9
S' Protein'
p178
ssI387268
(dp179
g9
S' Article'
p180
ssI247386
(dp181
g9
S' Article'
p182
ssI575687
(dp183
g9
S' Gene'
p184
ssI929992
(dp185
g9
S' Protein'
p186
ssI6345
(dp187
g9
S' BiologicalProcess'
p188
ssI49354
(dp189
g9
S' Gene'
p190
ssI458955
(dp191
g9
S' Gene'
p192
ssI30924
(dp193
g9
S' Gene'
p194
ssI919759
(dp195
g9
S' Protein'
p196
ssI377040
(dp197
g9
S' Article'
p198
ssI377043
(dp199
g9
S' Protein'
p200
ssI377044
(dp201
g9
S' Protein'
p202
ssI569557
(dp203
g9
S' Gene'
p204
ssI172247
(dp205
g9
S' Domain'
p206
ssI499928
(dp207
g9
S' Gene'
p208
ssI950491
(dp209
g9
S' Protein'
p210
ssI397536
(dp211
g9
S' Protein'
p212
ssI248717
(dp213
g9
S' Protein'
p214
ssI514285
(dp215
g9
S' Gene'
p216
ssI297200
(dp217
g9
S' Protein'
p218
ssI551153
(dp219
g9
S' Article'
p220
ssI942322
(dp221
g9
S' Protein'
p222
ssI207091
(dp223
g9
S' Protein'
p224
ssI483572
(dp225
g9
S' Gene'
p226
ssI444661
(dp227
g9
S' Protein'
p228
ssI249
(dp229
g9
S' MolecularFunction'
p230
ssI604411
(dp231
g9
S' Article'
p232
ssI90364
(dp233
g9
S' Article'
p234
ssI254206
(dp235
g9
S' Protein'
p236
ssI930049
(dp237
g9
S' Protein'
p238
ssI925954
(dp239
g9
S' Protein'
p240
ssI434436
(dp241
g9
S' Protein'
p242
ssI217350
(dp243
g9
S' Article'
p244
ssI919817
(dp245
g9
S' Protein'
p246
ssI220887
(dp247
g9
S' Protein'
p248
ssI164226
(dp249
g9
S' Domain'
p250
ssI520465
(dp251
g9
S' Article'
p252
ssI293139
(dp253
g9
S' Protein'
p254
ssI277
(dp255
g9
S' MolecularFunction'
p256
ssI3801
(dp257
g9
S' MolecularFunction'
p258
ssI569624
(dp259
g9
S' Gene'
p260
ssI319728
(dp261
g9
S' Protein'
p262
ssI428079
(dp263
g9
S' Protein'
p264
ssI289
(dp265
g9
S' CellularComponent'
p266
ssI554837
(dp267
g9
S' Gene'
p268
ssI4387
(dp269
g9
S' MolecularFunction'
p270
ssI465189
(dp271
g9
S' Gene'
p272
ssI471334
(dp273
g9
S' Gene'
p274
ssI260391
(dp275
g9
S' Article'
p276
ssI915752
(dp277
g9
S' Protein'
p278
ssI334922
(dp279
g9
S' Protein'
p280
ssI35119
(dp281
g9
S' Gene'
p282
ssI380573
(dp283
g9
S' Protein'
p284
ssI332168
(dp285
g9
S' Protein'
p286
ssI913714
(dp287
g9
S' Protein'
p288
ssI308
(dp289
g9
S' BiologicalProcess'
p290
ssI226215
(dp291
g9
S' Protein'
p292
ssI252214
(dp293
g9
S' Protein'
p294
ssI626999
(dp295
g9
S' Gene'
p296
ssI387384
(dp297
g9
S' Protein'
p298
ssI919865
(dp299
g9
S' Protein'
p300
ssI291551
(dp301
g9
S' Domain'
p302
ssI205118
(dp303
g9
S' Protein'
p304
ssI907583
(dp305
g9
S' Protein'
p306
ssI586048
(dp307
g9
S' Article'
p308
ssI207169
(dp309
g9
S' Protein'
p310
ssI467628
(dp311
g9
S' Gene'
p312
ssI41284
(dp313
g9
S' Gene'
p314
ssI203079
(dp315
g9
S' Protein'
p316
ssI454985
(dp317
g9
S' Gene'
p318
ssI18763
(dp319
g9
S' CellularComponent'
p320
ssI907597
(dp321
g9
S' Protein'
p322
ssI158031
(dp323
g9
S' Article'
p324
ssI311632
(dp325
g9
S' Protein'
p326
ssI919889
(dp327
g9
S' Protein'
p328
ssI207186
(dp329
g9
S' Article'
p330
ssI207187
(dp331
g9
S' Protein'
p332
ssI246100
(dp333
g9
S' Protein'
p334
ssI236650
(dp335
g9
S' Protein'
p336
ssI323926
(dp337
g9
S' Protein'
p338
ssI343
(dp339
g9
S' CellularComponent'
p340
ssI2394
(dp341
g9
S' BiologicalProcess'
p342
ssI481629
(dp343
g9
S' Gene'
p344
ssI939765
(dp345
g9
S' Protein'
p346
ssI223216
(dp347
g9
S' Protein'
p348
ssI393574
(dp349
g9
S' Protein'
p350
ssI163900
(dp351
g9
S' Domain'
p352
ssI481645
(dp353
g9
S' Gene'
p354
ssI483389
(dp355
g9
S' Gene'
p356
ssI909680
(dp357
g9
S' Protein'
p358
ssI911731
(dp359
g9
S' Protein'
p360
ssI202826
(dp361
g9
S' Protein'
p362
ssI6520
(dp363
g9
S' BiologicalProcess'
p364
ssI358779
(dp365
g9
S' Protein'
p366
ssI717443
(dp367
g9
S' Gene'
p368
ssI508290
(dp369
g9
S' Gene'
p370
ssI25177
(dp371
g9
S' Tissue'
p372
ssI260488
(dp373
g9
S' Protein'
p374
ssI2445
(dp375
g9
S' BiologicalProcess'
p376
ssI319886
(dp377
g9
S' Protein'
p378
ssI6547
(dp379
g9
S' BiologicalProcess'
p380
ssI6548
(dp381
g9
S' BiologicalProcess'
p382
ssI248216
(dp383
g9
S' Protein'
p384
ssI260507
(dp385
g9
S' Protein'
p386
ssI913822
(dp387
g9
S' Protein'
p388
ssI260686
(dp389
g9
S' Protein'
p390
ssI356768
(dp391
g9
S' Protein'
p392
ssI803233
(dp393
g9
S' Article'
p394
ssI203170
(dp395
g9
S' Protein'
p396
ssI220867
(dp397
g9
S' Protein'
p398
ssI262897
(dp399
g9
S' Protein'
p400
ssI154024
(dp401
g9
S' Article'
p402
ssI942151
(dp403
g9
S' Protein'
p404
ssI917933
(dp405
g9
S' Protein'
p406
ssI475567
(dp407
g9
S' Gene'
p408
ssI913139
(dp409
g9
S' Protein'
p410
ssI223646
(dp411
g9
S' Protein'
p412
ssI434615
(dp413
g9
S' Protein'
p414
ssI35260
(dp415
g9
S' Gene'
p416
ssI211389
(dp417
g9
S' Protein'
p418
ssI248254
(dp419
g9
S' Protein'
p420
ssI354751
(dp421
g9
S' Protein'
p422
ssI448
(dp423
g9
S' MolecularFunction'
p424
ssI43459
(dp425
g9
S' Gene'
p426
ssI43460
(dp427
g9
S' Gene'
p428
ssI173982
(dp429
g9
S' Family'
p430
ssI941473
(dp431
g9
S' Protein'
p432
ssI468860
(dp433
g9
S' Gene'
p434
ssI938442
(dp435
g9
S' Protein'
p436
ssI219087
(dp437
g9
S' Article'
p438
ssI846284
(dp439
g9
S' Gene'
p440
ssI373154
(dp441
g9
S' Protein'
p442
ssI920015
(dp443
g9
S' Protein'
p444
ssI229840
(dp445
g9
S' Protein'
p446
ssI915921
(dp447
g9
S' Protein'
p448
ssI27090
(dp449
g9
S' Gene'
p450
ssI270315
(dp451
g9
S' Protein'
p452
ssI290531
(dp453
g9
S' Protein'
p454
ssI461271
(dp455
g9
S' Gene'
p456
ssI954841
(dp457
g9
S' Protein'
p458
ssI615503
(dp459
g9
S' Gene'
p460
ssI381405
(dp461
g9
S' Protein'
p462
ssI481761
(dp463
g9
S' Gene'
p464
ssI937723
(dp465
g9
S' Protein'
p466
ssI911844
(dp467
g9
S' Protein'
p468
ssI1667
(dp469
g9
S' BiologicalProcess'
p470
ssI256491
(dp471
g9
S' Protein'
p472
ssI469484
(dp473
g9
S' Gene'
p474
ssI922093
(dp475
g9
S' Protein'
p476
ssI231919
(dp477
g9
S' Article'
p478
ssI166385
(dp479
g9
S' Domain'
p480
ssI469075
(dp481
g9
S' Gene'
p482
ssI248308
(dp483
g9
S' Protein'
p484
ssI203254
(dp485
g9
S' Protein'
p486
ssI381431
(dp487
g9
S' Protein'
p488
ssI455165
(dp489
g9
S' Gene'
p490
ssI627198
(dp491
g9
S' Gene'
p492
ssI163925
(dp493
g9
S' BiologicalProcess'
p494
ssI35329
(dp495
g9
S' Gene'
p496
ssI458155
(dp497
g9
S' Gene'
p498
ssI877061
(dp499
g9
S' Gene'
p500
ssI950793
(dp501
g9
S' Protein'
p502
ssI25098
(dp503
g9
S' Tissue'
p504
ssI173143
(dp505
g9
S' Domain'
p506
ssI293391
(dp507
g9
S' Protein'
p508
ssI387600
(dp509
g9
S' Protein'
p510
ssI168465
(dp511
g9
S' ConservedSite'
p512
ssI168466
(dp513
g9
S' Domain'
p514
ssI340500
(dp515
g9
S' Protein'
p516
ssI358181
(dp517
g9
S' Protein'
p518
ssI258583
(dp519
g9
S' Article'
p520
ssI45594
(dp521
g9
S' Gene'
p522
ssI395804
(dp523
g9
S' Protein'
p524
ssI338462
(dp525
g9
S' Protein'
p526
ssI465439
(dp527
g9
S' Gene'
p528
ssI25120
(dp529
g9
S' Tissue'
p530
ssI41507
(dp531
g9
S' Gene'
p532
ssI238703
(dp533
g9
S' Article'
p534
ssI25134
(dp535
g9
S' Tissue'
p536
ssI238130
(dp537
g9
S' Protein'
p538
ssI211510
(dp539
g9
S' Protein'
p540
ssI330295
(dp541
g9
S' Protein'
p542
ssI309820
(dp543
g9
S' Protein'
p544
ssI221761
(dp545
g9
S' Protein'
p546
ssI455237
(dp547
g9
S' Gene'
p548
ssI203337
(dp549
g9
S' Protein'
p550
ssI569930
(dp551
g9
S' Gene'
p552
ssI8780
(dp553
g9
S' BiologicalProcess'
p554
ssI508494
(dp555
g9
S' Gene'
p556
ssI45647
(dp557
g9
S' Gene'
p558
ssI25168
(dp559
g9
S' Tissue'
p560
ssI6738
(dp561
g9
S' BiologicalProcess'
p562
ssI599
(dp563
g9
S' BiologicalProcess'
p564
ssI25176
(dp565
g9
S' Tissue'
p566
ssI291417
(dp567
g9
S' Organism'
p568
ssI291418
(dp569
g9
S' Organism'
p570
ssI244315
(dp571
g9
S' Protein'
p572
ssI4700
(dp573
g9
S' MolecularFunction'
p574
ssI939483
(dp575
g9
S' Protein'
p576
ssI215647
(dp577
g9
S' Protein'
p578
ssI944912
(dp579
g9
S' Protein'
p580
ssI262754
(dp581
g9
S' Article'
p582
ssI316006
(dp583
g9
S' Protein'
p584
ssI4713
(dp585
g9
S' MolecularFunction'
p586
ssI4715
(dp587
g9
S' MolecularFunction'
p588
ssI37486
(dp589
g9
S' Gene'
p590
ssI463293
(dp591
g9
S' Gene'
p592
ssI520816
(dp593
g9
S' Article'
p594
ssI940136
(dp595
g9
S' Protein'
p596
ssI37490
(dp597
g9
S' Gene'
p598
ssI911987
(dp599
g9
S' Protein'
p600
ssI911989
(dp601
g9
S' Protein'
p602
ssI4728
(dp603
g9
S' MolecularFunction'
p604
ssI4730
(dp605
g9
S' MolecularFunction'
p606
ssI164287
(dp607
g9
S' Domain'
p608
ssI926936
(dp609
g9
S' Protein'
p610
ssI6781
(dp611
g9
S' BiologicalProcess'
p612
ssI932479
(dp613
g9
S' Protein'
p614
ssI916096
(dp615
g9
S' Protein'
p616
ssI164482
(dp617
g9
S' Domain'
p618
ssI248451
(dp619
g9
S' Protein'
p620
ssI27275
(dp621
g9
S' Gene/Phenotype'
p622
ssI475788
(dp623
g9
S' Gene'
p624
ssI252557
(dp625
g9
S' Protein'
p626
ssI920206
(dp627
g9
S' Protein'
p628
ssI291472
(dp629
g9
S' Tissue'
p630
ssI730904
(dp631
g9
S' Article'
p632
ssI4756
(dp633
g9
S' CellularComponent'
p634
ssI905878
(dp635
g9
S' Protein'
p636
ssI215833
(dp637
g9
S' Protein'
p638
ssI35951
(dp639
g9
S' Gene'
p640
ssI39580
(dp641
g9
S' Gene'
p642
ssI227997
(dp643
g9
S' Protein'
p644
ssI465566
(dp645
g9
S' Gene'
p646
ssI938658
(dp647
g9
S' Protein'
p648
ssI289443
(dp649
g9
S' Protein'
p650
ssI427462
(dp651
g9
S' Protein'
p652
ssI481959
(dp653
g9
S' Gene'
p654
ssI907948
(dp655
g9
S' Protein'
p656
ssI62125
(dp657
g9
S' Phenotype'
p658
ssI307886
(dp659
g9
S' Protein'
p660
ssI879282
(dp661
g9
S' Gene'
p662
ssI471733
(dp663
g9
S' Gene'
p664
ssI707254
(dp665
g9
S' Gene'
p666
ssI62137
(dp667
g9
S' Gene'
p668
ssI463547
(dp669
g9
S' Gene'
p670
ssI913287
(dp671
g9
S' Protein'
p672
ssI252605
(dp673
g9
S' Protein'
p674
ssI364529
(dp675
g9
S' Protein'
p676
ssI297668
(dp677
g9
S' Protein'
p678
ssI907973
(dp679
g9
S' Protein'
p680
ssI918214
(dp681
g9
S' Protein'
p682
ssI4807
(dp683
g9
S' CellularComponent'
p684
ssI4812
(dp685
g9
S' CellularComponent'
p686
ssI171810
(dp687
g9
S' Family'
p688
ssI248526
(dp689
g9
S' Protein'
p690
ssI4819
(dp691
g9
S' CellularComponent'
p692
ssI928472
(dp693
g9
S' Protein'
p694
ssI314073
(dp695
g9
S' Protein'
p696
ssI219867
(dp697
g9
S' Protein'
p698
ssI916189
(dp699
g9
S' Protein'
p700
ssI473823
(dp701
g9
S' Gene'
p702
ssI318839
(dp703
g9
S' Protein'
p704
ssI246500
(dp705
g9
S' Article'
p706
ssI291629
(dp707
g9
S' Protein'
p708
ssI916201
(dp709
g9
S' Protein'
p710
ssI226029
(dp711
g9
S' Protein'
p712
ssI826094
(dp713
g9
S' GenomicContext'
p714
ssI291569
(dp715
g9
S' Tissue'
p716
ssI158450
(dp717
g9
S' Article'
p718
ssI236276
(dp719
g9
S' Protein'
p720
ssI518901
(dp721
g9
S' Gene'
p722
ssI127734
(dp723
g9
S' Article'
p724
ssI498425
(dp725
g9
S' Gene'
p726
ssI29434
(dp727
g9
S' Gene'
p728
ssI918267
(dp729
g9
S' Protein'
p730
ssI365310
(dp731
g9
S' Protein'
p732
ssI742744
(dp733
g9
S' Article'
p734
ssI13119
(dp735
g9
S' MolecularFunction'
p736
ssI127746
(dp737
g9
S' Article'
p738
ssI226051
(dp739
g9
S' Protein'
p740
ssI508677
(dp741
g9
S' Gene'
p742
ssI29446
(dp743
g9
S' Gene'
p744
ssI916609
(dp745
g9
S' Protein'
p746
ssI506632
(dp747
g9
S' Gene'
p748
ssI441097
(dp749
g9
S' Protein'
p750
ssI406282
(dp751
g9
S' Protein'
p752
ssI406283
(dp753
g9
S' Protein'
p754
ssI97037
(dp755
g9
S' Article'
p756
ssI809742
(dp757
g9
S' GenomicContext'
p758
ssI209679
(dp759
g9
S' Protein'
p760
ssI568080
(dp761
g9
S' Gene'
p762
ssI45844
(dp763
g9
S' Gene'
p764
ssI465685
(dp765
g9
S' Gene'
p766
ssI537366
(dp767
g9
S' Gene'
p768
ssI906008
(dp769
g9
S' Protein'
p770
ssI283417
(dp771
g9
S' Protein'
p772
ssI463645
(dp773
g9
S' Gene'
p774
ssI910111
(dp775
g9
S' Protein'
p776
ssI809763
(dp777
g9
S' GenomicContext'
p778
ssI465700
(dp779
g9
S' Gene'
p780
ssI4903
(dp781
g9
S' CellularComponent'
p782
ssI4904
(dp783
g9
S' CellularComponent'
p784
ssI504618
(dp785
g9
S' Gene'
p786
ssI846635
(dp787
g9
S' GenomicContext'
p788
ssI465709
(dp789
g9
S' Gene'
p790
ssI916270
(dp791
g9
S' Protein'
p792
ssI127791
(dp793
g9
S' Article'
p794
ssI127792
(dp795
g9
S' Article'
p796
ssI568115
(dp797
g9
S' Gene'
p798
ssI467766
(dp799
g9
S' Gene'
p800
ssI29495
(dp801
g9
S' Gene'
p802
ssI339764
(dp803
g9
S' Protein'
p804
ssI248634
(dp805
g9
S' Protein'
p806
ssI228158
(dp807
g9
S' Protein'
p808
ssI928575
(dp809
g9
S' Protein'
p810
ssI500544
(dp811
g9
S' Gene'
p812
ssI29506
(dp813
g9
S' Gene'
p814
ssI908104
(dp815
g9
S' Protein'
p816
ssI6985
(dp817
g9
S' BiologicalProcess'
p818
ssI654155
(dp819
g9
S' Article'
p820
ssI60237
(dp821
g9
S' GenomicContext'
p822
ssI435022
(dp823
g9
S' Protein'
p824
ssI459599
(dp825
g9
S' Article'
p826
ssI809808
(dp827
g9
S' GenomicContext'
p828
ssI262993
(dp829
g9
S' Article'
p830
ssI997321
(dp831
g9
S' Pathway'
p832
ssI103251
(dp833
g9
S' Article'
p834
ssI809812
(dp835
g9
S' GenomicContext'
p836
ssI915940
(dp837
g9
S' Protein'
p838
ssI164666
(dp839
g9
S' Domain'
p840
ssI351070
(dp841
g9
S' Protein'
p842
ssI166751
(dp843
g9
S' Family'
p844
ssI910480
(dp845
g9
S' Protein'
p846
ssI25442
(dp847
g9
S' Tissue'
p848
ssI895843
(dp849
g9
S' HomologGroup'
p850
ssI4964
(dp851
g9
S' CellularComponent'
p852
ssI4965
(dp853
g9
S' CellularComponent'
p854
ssI506727
(dp855
g9
S' Gene'
p856
ssI289643
(dp857
g9
S' Protein'
p858
ssI271213
(dp859
g9
S' Protein'
p860
ssI920430
(dp861
g9
S' Protein'
p862
ssI865427
(dp863
g9
S' Gene'
p864
ssI4981
(dp865
g9
S' CellularComponent'
p866
ssI407499
(dp867
g9
S' Article'
p868
ssI29559
(dp869
g9
S' Gene'
p870
ssI168950
(dp871
g9
S' Family'
p872
ssI216005
(dp873
g9
S' Protein'
p874
ssI4735
(dp875
g9
S' MolecularFunction'
p876
ssI205692
(dp877
g9
S' Protein'
p878
ssI367486
(dp879
g9
S' Protein'
p880
ssI940929
(dp881
g9
S' Protein'
p882
ssI385515
(dp883
g9
S' Protein'
p884
ssI482180
(dp885
g9
S' Gene'
p886
ssI928645
(dp887
g9
S' Protein'
p888
ssI570250
(dp889
g9
S' Gene'
p890
ssI60300
(dp891
g9
S' GenomicContext'
p892
ssI914317
(dp893
g9
S' Protein'
p894
ssI377742
(dp895
g9
S' Article'
p896
ssI34285
(dp897
g9
S' Gene'
p898
ssI164754
(dp899
g9
S' Family'
p900
ssI174995
(dp901
g9
S' Domain'
p902
ssI396180
(dp903
g9
S' Protein'
p904
ssI248727
(dp905
g9
S' Protein'
p906
ssI50072
(dp907
g9
S' Gene'
p908
ssI351134
(dp909
g9
S' Protein'
p910
ssI164767
(dp911
g9
S' Family'
p912
ssI211099
(dp913
g9
S' Protein'
p914
ssI328461
(dp915
g9
S' Protein'
p916
ssI5031
(dp917
g9
S' CellularComponent'
p918
ssI211882
(dp919
g9
S' Protein'
p920
ssI541613
(dp921
g9
S' Gene'
p922
ssI503573
(dp923
g9
S' Gene'
p924
ssI242504
(dp925
g9
S' Protein'
p926
ssI209842
(dp927
g9
S' Protein'
p928
ssI62387
(dp929
g9
S' GenomicContext'
p930
ssI41908
(dp931
g9
S' Gene'
p932
ssI41910
(dp933
g9
S' Gene'
p934
ssI349115
(dp935
g9
S' Protein'
p936
ssI519101
(dp937
g9
S' Gene'
p938
ssI29856
(dp939
g9
S' Gene'
p940
ssI850763
(dp941
g9
S' Gene'
p942
ssI918006
(dp943
g9
S' Protein'
p944
ssI33735
(dp945
g9
S' Gene'
p946
ssI240585
(dp947
g9
S' Protein'
p948
ssI459255
(dp949
g9
S' Gene'
p950
ssI33740
(dp951
g9
S' Gene'
p952
ssI717773
(dp953
g9
S' Article'
p954
ssI250830
(dp955
g9
S' Protein'
p956
ssI2010
(dp957
g9
S' BiologicalProcess'
p958
ssI5624
(dp959
g9
S' BiologicalProcess'
p960
ssI238546
(dp961
g9
S' Protein'
p962
ssI351190
(dp963
g9
S' Protein'
p964
ssI400203
(dp965
g9
S' Protein'
p966
ssI41946
(dp967
g9
S' Gene'
p968
ssI525135
(dp969
g9
S' Gene'
p970
ssI912348
(dp971
g9
S' Protein'
p972
ssI349151
(dp973
g9
S' Protein'
p974
ssI314336
(dp975
g9
S' Protein'
p976
ssI29667
(dp977
g9
S' Gene'
p978
ssI603109
(dp979
g9
S' Gene'
p980
ssI916454
(dp981
g9
S' Protein'
p982
ssI453607
(dp983
g9
S' Protein'
p984
ssI285673
(dp985
g9
S' Article'
p986
ssI62442
(dp987
g9
S' Gene'
p988
ssI23531
(dp989
g9
S' BiologicalProcess'
p990
ssI29677
(dp991
g9
S' Gene'
p992
ssI465405
(dp993
g9
S' Gene'
p994
ssI826353
(dp995
g9
S' GenomicContext'
p996
ssI467955
(dp997
g9
S' Gene'
p998
ssI388606
(dp999
g9
S' Protein'
p1000
ssI340982
(dp1001
g9
S' Protein'
p1002
ssI397481
(dp1003
g9
S' Protein'
p1004
ssI910329
(dp1005
g9
S' Protein'
p1006
ssI603130
(dp1007
g9
S' Article'
p1008
ssI345581
(dp1009
g9
S' Protein'
p1010
ssI912380
(dp1011
g9
S' Protein'
p1012
ssI379901
(dp1013
g9
S' Protein'
p1014
ssI784
(dp1015
g9
S' BiologicalProcess'
p1016
ssI468821
(dp1017
g9
S' Gene'
p1018
ssI289794
(dp1019
g9
S' Protein'
p1020
ssI257027
(dp1021
g9
S' Protein'
p1022
ssI412678
(dp1023
g9
S' Protein'
p1024
ssI919041
(dp1025
g9
S' Protein'
p1026
ssI470026
(dp1027
g9
S' Gene'
p1028
ssI914444
(dp1029
g9
S' Protein'
p1030
ssI908301
(dp1031
g9
S' Protein'
p1032
ssI921562
(dp1033
g9
S' Protein'
p1034
ssI263185
(dp1035
g9
S' Protein'
p1036
ssI924690
(dp1037
g9
S' Protein'
p1038
ssI5139
(dp1039
g9
S' BiologicalProcess'
p1040
ssI926742
(dp1041
g9
S' Protein'
p1042
ssI547863
(dp1043
g9
S' Gene'
p1044
ssI465944
(dp1045
g9
S' Gene'
p1046
ssI926748
(dp1047
g9
S' Protein'
p1048
ssI25093
(dp1049
g9
S' Tissue'
p1050
ssI212004
(dp1051
g9
S' Protein'
p1052
ssI236581
(dp1053
g9
S' Article'
p1054
ssI480295
(dp1055
g9
S' Gene'
p1056
ssI466860
(dp1057
g9
S' Gene'
p1058
ssI627026
(dp1059
g9
S' Gene'
p1060
ssI826413
(dp1061
g9
S' GenomicContext'
p1062
ssI470062
(dp1063
g9
S' Gene'
p1064
ssI842589
(dp1065
g9
S' Gene'
p1066
ssI468017
(dp1067
g9
S' Gene'
p1068
ssI943158
(dp1069
g9
S' Protein'
p1070
ssI576567
(dp1071
g9
S' Gene'
p1072
ssI488287
(dp1073
g9
S' Gene'
p1074
ssI955452
(dp1075
g9
S' Protein'
p1076
ssI68789
(dp1077
g9
S' Article'
p1078
ssI924736
(dp1079
g9
S' Protein'
p1080
ssI341057
(dp1081
g9
S' Protein'
p1082
ssI217512
(dp1083
g9
S' Protein'
p1084
ssI346425
(dp1085
g9
S' Protein'
p1086
ssI836678
(dp1087
g9
S' Gene'
p1088
ssI928839
(dp1089
g9
S' Protein'
p1090
ssI920650
(dp1091
g9
S' Protein'
p1092
ssI529483
(dp1093
g9
S' Gene'
p1094
ssI228428
(dp1095
g9
S' Protein'
p1096
ssI45922
(dp1097
g9
S' Gene'
p1098
ssI433230
(dp1099
g9
S' Protein'
p1100
ssI519247
(dp1101
g9
S' Gene'
p1102
ssI212050
(dp1103
g9
S' Article'
p1104
ssI207955
(dp1105
g9
S' Protein'
p1106
ssI212052
(dp1107
g9
S' Protein'
p1108
ssI7253
(dp1109
g9
S' MolecularFunction'
p1110
ssI922711
(dp1111
g9
S' Protein'
p1112
ssI928860
(dp1113
g9
S' Protein'
p1114
ssI940218
(dp1115
g9
S' Protein'
p1116
ssI470110
(dp1117
g9
S' Gene'
p1118
ssI33979
(dp1119
g9
S' Gene'
p1120
ssI515172
(dp1121
g9
S' Gene'
p1122
ssI922725
(dp1123
g9
S' Protein'
p1124
ssI248934
(dp1125
g9
S' Protein'
p1126
ssI922727
(dp1127
g9
S' Protein'
p1128
ssI483408
(dp1129
g9
S' Gene'
p1130
ssI914538
(dp1131
g9
S' Protein'
p1132
ssI631919
(dp1133
g9
S' Gene'
p1134
ssI232561
(dp1135
g9
S' Article'
p1136
ssI369780
(dp1137
g9
S' Protein'
p1138
ssI975991
(dp1139
g9
S' Compound'
p1140
ssI25108
(dp1141
g9
S' Tissue'
p1142
ssI465087
(dp1143
g9
S' Gene'
p1144
ssI924796
(dp1145
g9
S' Protein'
p1146
ssI939541
(dp1147
g9
S' Protein'
p1148
ssI150720
(dp1149
g9
S' Article'
p1150
ssI939142
(dp1151
g9
S' Protein'
p1152
ssI242823
(dp1153
g9
S' Protein'
p1154
ssI206789
(dp1155
g9
S' Protein'
p1156
ssI246928
(dp1157
g9
S' Protein'
p1158
ssI240787
(dp1159
g9
S' Protein'
p1160
ssI244887
(dp1161
g9
S' Article'
p1162
ssI212121
(dp1163
g9
S' Protein'
p1164
ssI924826
(dp1165
g9
S' Protein'
p1166
ssI914587
(dp1167
g9
S' Protein'
p1168
ssI423875
(dp1169
g9
S' Protein'
p1170
ssI472223
(dp1171
g9
S' Gene'
p1172
ssI263328
(dp1173
g9
S' Article'
p1174
ssI916642
(dp1175
g9
S' Protein'
p1176
ssI212131
(dp1177
g9
S' Article'
p1178
ssI220329
(dp1179
g9
S' Protein'
p1180
ssI165746
(dp1181
g9
S' Domain'
p1182
ssI8155
(dp1183
g9
S' BiologicalProcess'
p1184
ssI711861
(dp1185
g9
S' Gene'
p1186
ssI906424
(dp1187
g9
S' Protein'
p1188
ssI1211
(dp1189
g9
S' MolecularFunction'
p1190
ssI33980
(dp1191
g9
S' Gene'
p1192
ssI926912
(dp1193
g9
S' Protein'
p1194
ssI1781
(dp1195
g9
S' BiologicalProcess'
p1196
ssI230595
(dp1197
g9
S' Protein'
p1198
ssI910532
(dp1199
g9
S' Protein'
p1200
ssI450422
(dp1201
g9
S' Protein'
p1202
ssI922823
(dp1203
g9
S' Protein'
p1204
ssI474999
(dp1205
g9
S' Gene'
p1206
ssI531660
(dp1207
g9
S' Article'
p1208
ssI167117
(dp1209
g9
S' Domain'
p1210
ssI21710
(dp1211
g9
S' MolecularFunction'
p1212
ssI165071
(dp1213
g9
S' Domain'
p1214
ssI918739
(dp1215
g9
S' Protein'
p1216
ssI152782
(dp1217
g9
S' Article'
p1218
ssI304344
(dp1219
g9
S' Protein'
p1220
ssI371933
(dp1221
g9
S' Protein'
p1222
ssI81118
(dp1223
g9
S' Article'
p1224
ssI413221
(dp1225
g9
S' Protein'
p1226
ssI457952
(dp1227
g9
S' Gene'
p1228
ssI754555
(dp1229
g9
S' Article'
p1230
ssI275685
(dp1231
g9
S' Article'
p1232
ssI517350
(dp1233
g9
S' Gene'
p1234
ssI312188
(dp1235
g9
S' Article'
p1236
ssI46315
(dp1237
g9
S' Gene'
p1238
ssI46318
(dp1239
g9
S' Gene'
p1240
ssI394480
(dp1241
g9
S' Protein'
p1242
ssI922047
(dp1243
g9
S' Protein'
p1244
ssI914681
(dp1245
g9
S' Protein'
p1246
ssI144635
(dp1247
g9
S' Article'
p1248
ssI361724
(dp1249
g9
S' Protein'
p1250
ssI906453
(dp1251
g9
S' Protein'
p1252
ssI431361
(dp1253
g9
S' Protein'
p1254
ssI380164
(dp1255
g9
S' Protein'
p1256
ssI918789
(dp1257
g9
S' Protein'
p1258
ssI922886
(dp1259
g9
S' Protein'
p1260
ssI924935
(dp1261
g9
S' Protein'
p1262
ssI906504
(dp1263
g9
S' Protein'
p1264
ssI163083
(dp1265
g9
S' Article'
p1266
ssI220431
(dp1267
g9
S' Protein'
p1268
ssI167128
(dp1269
g9
S' Repeat'
p1270
ssI42260
(dp1271
g9
S' Gene'
p1272
ssI908565
(dp1273
g9
S' Protein'
p1274
ssI466199
(dp1275
g9
S' Gene'
p1276
ssI228633
(dp1277
g9
S' Protein'
p1278
ssI291716
(dp1279
g9
S' Tissue'
p1280
ssI238877
(dp1281
g9
S' Protein'
p1282
ssI920866
(dp1283
g9
S' Protein'
p1284
ssI7459
(dp1285
g9
S' MolecularFunction'
p1286
ssI285992
(dp1287
g9
S' Article'
p1288
ssI285993
(dp1289
g9
S' Protein'
p1290
ssI29994
(dp1291
g9
S' Gene'
p1292
ssI920875
(dp1293
g9
S' Protein'
p1294
ssI427309
(dp1295
g9
S' Protein'
p1296
ssI224558
(dp1297
g9
S' Protein'
p1298
ssI458032
(dp1299
g9
S' Gene'
p1300
ssI234805
(dp1301
g9
S' Protein'
p1302
ssI238904
(dp1303
g9
S' Protein'
p1304
ssI460090
(dp1305
g9
S' Gene'
p1306
ssI273723
(dp1307
g9
S' Protein'
p1308
ssI929084
(dp1309
g9
S' Protein'
p1310
ssI928650
(dp1311
g9
S' Protein'
p1312
ssI929086
(dp1313
g9
S' Protein'
p1314
ssI437567
(dp1315
g9
S' Protein'
p1316
ssI228159
(dp1317
g9
S' Protein'
p1318
ssI236869
(dp1319
g9
S' Protein'
p1320
ssI34279
(dp1321
g9
S' Gene'
p1322
ssI208201
(dp1323
g9
S' Protein'
p1324
ssI165194
(dp1325
g9
S' Domain'
p1326
ssI236411
(dp1327
g9
S' Protein'
p1328
ssI292877
(dp1329
g9
S' Protein'
p1330
ssI377741
(dp1331
g9
S' Article'
p1332
ssI228688
(dp1333
g9
S' Protein'
p1334
ssI486737
(dp1335
g9
S' Gene'
p1336
ssI570711
(dp1337
g9
S' Gene'
p1338
ssI230744
(dp1339
g9
S' Protein'
p1340
ssI64857
(dp1341
g9
S' Article'
p1342
ssI467787
(dp1343
g9
S' Gene'
p1344
ssI941404
(dp1345
g9
S' Protein'
p1346
ssI148834
(dp1347
g9
S' Article'
p1348
ssI929126
(dp1349
g9
S' Protein'
p1350
ssI826236
(dp1351
g9
S' GenomicContext'
p1352
ssI2962
(dp1353
g9
S' BiologicalProcess'
p1354
ssI941425
(dp1355
g9
S' Protein'
p1356
ssI50547
(dp1357
g9
S' Gene'
p1358
ssI578793
(dp1359
g9
S' Gene'
p1360
ssI228729
(dp1361
g9
S' Protein'
p1362
ssI427387
(dp1363
g9
S' Protein'
p1364
ssI226684
(dp1365
g9
S' Protein'
p1366
ssI914815
(dp1367
g9
S' Protein'
p1368
ssI372099
(dp1369
g9
S' Article'
p1370
ssI910725
(dp1371
g9
S' Protein'
p1372
ssI174999
(dp1373
g9
S' Family'
p1374
ssI916876
(dp1375
g9
S' Protein'
p1376
ssI273805
(dp1377
g9
S' Article'
p1378
ssI914328
(dp1379
g9
S' Protein'
p1380
ssI294291
(dp1381
g9
S' Protein'
p1382
ssI445849
(dp1383
g9
S' Protein'
p1384
ssI408987
(dp1385
g9
S' Protein'
p1386
ssI445853
(dp1387
g9
S' Protein'
p1388
ssI255391
(dp1389
g9
S' Protein'
p1390
ssI473871
(dp1391
g9
S' Gene'
p1392
ssI929185
(dp1393
g9
S' Protein'
p1394
ssI430321
(dp1395
g9
S' Protein'
p1396
ssI476584
(dp1397
g9
S' Gene'
p1398
ssI466347
(dp1399
g9
S' Gene'
p1400
ssI16626
(dp1401
g9
S' CellularComponent'
p1402
ssI249262
(dp1403
g9
S' Protein'
p1404
ssI208303
(dp1405
g9
S' Protein'
p1406
ssI327088
(dp1407
g9
S' Protein'
p1408
ssI344990
(dp1409
g9
S' Protein'
p1410
ssI927158
(dp1411
g9
S' Protein'
p1412
ssI868596
(dp1413
g9
S' GenomicContext'
p1414
ssI906683
(dp1415
g9
S' Protein'
p1416
ssI908733
(dp1417
g9
S' Protein'
p1418
ssI923070
(dp1419
g9
S' Protein'
p1420
ssI925120
(dp1421
g9
S' Protein'
p1422
ssI497090
(dp1423
g9
S' Gene'
p1424
ssI208325
(dp1425
g9
S' Protein'
p1426
ssI167366
(dp1427
g9
S' Family'
p1428
ssI52683
(dp1429
g9
S' Gene'
p1430
ssI916940
(dp1431
g9
S' Protein'
p1432
ssI153037
(dp1433
g9
S' Article'
p1434
ssI808399
(dp1435
g9
S' Article'
p1436
ssI167378
(dp1437
g9
S' Domain'
p1438
ssI925139
(dp1439
g9
S' Protein'
p1440
ssI228820
(dp1441
g9
S' Protein'
p1442
ssI248398
(dp1443
g9
S' Protein'
p1444
ssI239062
(dp1445
g9
S' Protein'
p1446
ssI923097
(dp1447
g9
S' Protein'
p1448
ssI25167
(dp1449
g9
S' Tissue'
p1450
ssI450012
(dp1451
g9
S' Protein'
p1452
ssI460257
(dp1453
g9
S' Gene'
p1454
ssI30181
(dp1455
g9
S' Gene'
p1456
ssI435686
(dp1457
g9
S' Protein'
p1458
ssI937447
(dp1459
g9
S' Protein'
p1460
ssI230891
(dp1461
g9
S' Protein'
p1462
ssI908780
(dp1463
g9
S' Protein'
p1464
ssI407792
(dp1465
g9
S' Protein'
p1466
ssI513523
(dp1467
g9
S' Gene'
p1468
ssI278004
(dp1469
g9
S' Protein'
p1470
ssI366070
(dp1471
g9
S' Protein'
p1472
ssI48631
(dp1473
g9
S' Gene'
p1474
ssI437752
(dp1475
g9
S' Protein'
p1476
ssI204286
(dp1477
g9
S' Protein'
p1478
ssI857601
(dp1479
g9
S' GenomicContext'
p1480
ssI952235
(dp1481
g9
S' Protein'
p1482
ssI912902
(dp1483
g9
S' Protein'
p1484
ssI331271
(dp1485
g9
S' Protein'
p1486
ssI19977
(dp1487
g9
S' CellularComponent'
p1488
ssI907667
(dp1489
g9
S' Protein'
p1490
ssI295853
(dp1491
g9
S' Article'
p1492
ssI927249
(dp1493
g9
S' Protein'
p1494
ssI466450
(dp1495
g9
S' Gene'
p1496
ssI912916
(dp1497
g9
S' Protein'
p1498
ssI863765
(dp1499
g9
S' Gene'
p1500
ssI468503
(dp1501
g9
S' Gene'
p1502
ssI232985
(dp1503
g9
S' Article'
p1504
ssI224794
(dp1505
g9
S' Protein'
p1506
ssI929308
(dp1507
g9
S' Protein'
p1508
ssI25178
(dp1509
g9
S' Tissue'
p1510
ssI218654
(dp1511
g9
S' Protein'
p1512
ssI230946
(dp1513
g9
S' Protein'
p1514
ssI291419
(dp1515
g9
S' Tissue'
p1516
ssI462373
(dp1517
g9
S' Gene'
p1518
ssI238513
(dp1519
g9
S' Protein'
p1520
ssI472616
(dp1521
g9
S' Gene'
p1522
ssI239078
(dp1523
g9
S' Protein'
p1524
ssI5676
(dp1525
g9
S' BiologicalProcess'
p1526
ssI919085
(dp1527
g9
S' Protein'
p1528
ssI480815
(dp1529
g9
S' Gene'
p1530
ssI226282
(dp1531
g9
S' Protein'
p1532
ssI165427
(dp1533
g9
S' Domain'
p1534
ssI165428
(dp1535
g9
S' Domain'
p1536
ssI316982
(dp1537
g9
S' Protein'
p1538
ssI343607
(dp1539
g9
S' Protein'
p1540
ssI468538
(dp1541
g9
S' Gene'
p1542
ssI597564
(dp1543
g9
S' Article'
p1544
ssI474685
(dp1545
g9
S' Gene'
p1546
ssI290367
(dp1547
g9
S' Protein'
p1548
ssI527937
(dp1549
g9
S' Gene'
p1550
ssI224838
(dp1551
g9
S' Protein'
p1552
ssI222792
(dp1553
g9
S' Protein'
p1554
ssI917066
(dp1555
g9
S' Protein'
p1556
ssI794188
(dp1557
g9
S' Article'
p1558
ssI928188
(dp1559
g9
S' Protein'
p1560
ssI910947
(dp1561
g9
S' Protein'
p1562
ssI906836
(dp1563
g9
S' Protein'
p1564
ssI454231
(dp1565
g9
S' Protein'
p1566
ssI214628
(dp1567
g9
S' Protein'
p1568
ssI564826
(dp1569
g9
S' Gene'
p1570
ssI296541
(dp1571
g9
S' Article'
p1572
ssI376414
(dp1573
g9
S' Protein'
p1574
ssI507493
(dp1575
g9
S' Gene'
p1576
ssI376418
(dp1577
g9
S' Protein'
p1578
ssI41915
(dp1579
g9
S' Gene'
p1580
ssI503396
(dp1581
g9
S' Gene'
p1582
ssI13925
(dp1583
g9
S' BiologicalProcess'
p1584
ssI283413
(dp1585
g9
S' Protein'
p1586
ssI466535
(dp1587
g9
S' Gene'
p1588
ssI224874
(dp1589
g9
S' Protein'
p1590
ssI228971
(dp1591
g9
S' Protein'
p1592
ssI265836
(dp1593
g9
S' Article'
p1594
ssI376430
(dp1595
g9
S' Protein'
p1596
ssI228976
(dp1597
g9
S' Protein'
p1598
ssI943729
(dp1599
g9
S' Protein'
p1600
ssI415117
(dp1601
g9
S' Protein'
p1602
ssI376436
(dp1603
g9
S' Protein'
p1604
ssI241269
(dp1605
g9
S' Protein'
p1606
ssI479061
(dp1607
g9
S' Gene'
p1608
ssI10857
(dp1609
g9
S' BiologicalProcess'
p1610
ssI341628
(dp1611
g9
S' Protein'
p1612
ssI319101
(dp1613
g9
S' Protein'
p1614
ssI475413
(dp1615
g9
S' Gene'
p1616
ssI688755
(dp1617
g9
S' Article'
p1618
ssI319105
(dp1619
g9
S' Protein'
p1620
ssI25195
(dp1621
g9
S' Tissue'
p1622
ssI362125
(dp1623
g9
S' Protein'
p1624
ssI898702
(dp1625
g9
S' HomologGroup'
p1626
ssI210575
(dp1627
g9
S' Protein'
p1628
ssI216720
(dp1629
g9
S' Article'
p1630
ssI480913
(dp1631
g9
S' Gene'
p1632
ssI276419
(dp1633
g9
S' Protein'
p1634
ssI353940
(dp1635
g9
S' Article'
p1636
ssI507541
(dp1637
g9
S' Gene'
p1638
ssI462486
(dp1639
g9
S' Gene'
p1640
ssI215486
(dp1641
g9
S' Protein'
p1642
ssI225238
(dp1643
g9
S' Protein'
p1644
ssI380571
(dp1645
g9
S' Article'
p1646
ssI462493
(dp1647
g9
S' Gene'
p1648
ssI46021
(dp1649
g9
S' Gene'
p1650
ssI472925
(dp1651
g9
S' Gene'
p1652
ssI37489
(dp1653
g9
S' Gene'
p1654
ssI216744
(dp1655
g9
S' Protein'
p1656
ssI929453
(dp1657
g9
S' Protein'
p1658
ssI472751
(dp1659
g9
S' Gene'
p1660
ssI411251
(dp1661
g9
S' Protein'
p1662
ssI289411
(dp1663
g9
S' Protein'
p1664
ssI439241
(dp1665
g9
S' Protein'
p1666
ssI321054
(dp1667
g9
S' Protein'
p1668
ssI462847
(dp1669
g9
S' Gene'
p1670
ssI911036
(dp1671
g9
S' Protein'
p1672
ssI61386
(dp1673
g9
S' Gene'
p1674
ssI654965
(dp1675
g9
S' Article'
p1676
ssI908992
(dp1677
g9
S' Protein'
p1678
ssI149186
(dp1679
g9
S' Article'
p1680
ssI259019
(dp1681
g9
S' Protein'
p1682
ssI478917
(dp1683
g9
S' Gene'
p1684
ssI579279
(dp1685
g9
S' Gene'
p1686
ssI1048
(dp1687
g9
S' BiologicalProcess'
p1688
ssI920184
(dp1689
g9
S' Protein'
p1690
ssI355630
(dp1691
g9
S' Protein'
p1692
ssI206548
(dp1693
g9
S' Protein'
p1694
ssI14039
(dp1695
g9
S' BiologicalProcess'
p1696
ssI36568
(dp1697
g9
S' Gene'
p1698
ssI14041
(dp1699
g9
S' BiologicalProcess'
p1700
ssI223183
(dp1701
g9
S' Protein'
p1702
ssI208604
(dp1703
g9
S' Protein'
p1704
ssI265949
(dp1705
g9
S' Article'
p1706
ssI206558
(dp1707
g9
S' Protein'
p1708
ssI247760
(dp1709
g9
S' Protein'
p1710
ssI342651
(dp1711
g9
S' Protein'
p1712
ssI753381
(dp1713
g9
S' Article'
p1714
ssI165609
(dp1715
g9
S' Domain'
p1716
ssI209191
(dp1717
g9
S' Protein'
p1718
ssI370417
(dp1719
g9
S' Protein'
p1720
ssI511731
(dp1721
g9
S' Gene'
p1722
ssI136948
(dp1723
g9
S' Article'
p1724
ssI212725
(dp1725
g9
S' Protein'
p1726
ssI255734
(dp1727
g9
S' Protein'
p1728
ssI593193
(dp1729
g9
S' Article'
p1730
ssI52984
(dp1731
g9
S' Gene'
p1732
ssI3833
(dp1733
g9
S' MolecularFunction'
p1734
ssI506495
(dp1735
g9
S' Gene'
p1736
ssI904957
(dp1737
g9
S' Protein'
p1738
ssI435966
(dp1739
g9
S' Protein'
p1740
ssI206591
(dp1741
g9
S' Protein'
p1742
ssI929536
(dp1743
g9
S' Protein'
p1744
ssI239362
(dp1745
g9
S' Protein'
p1746
ssI659205
(dp1747
g9
S' Gene'
p1748
ssI917256
(dp1749
g9
S' Protein'
p1750
ssI927501
(dp1751
g9
S' Protein'
p1752
ssI204559
(dp1753
g9
S' Protein'
p1754
ssI397073
(dp1755
g9
S' Protein'
p1756
ssI266002
(dp1757
g9
S' Article'
p1758
ssI217195
(dp1759
g9
S' Article'
p1760
ssI909076
(dp1761
g9
S' Protein'
p1762
ssI263957
(dp1763
g9
S' Protein'
p1764
ssI214806
(dp1765
g9
S' Protein'
p1766
ssI904984
(dp1767
g9
S' Protein'
p1768
ssI294682
(dp1769
g9
S' Protein'
p1770
ssI240602
(dp1771
g9
S' Protein'
p1772
ssI925473
(dp1773
g9
S' Protein'
p1774
ssI218914
(dp1775
g9
S' Protein'
p1776
ssI912347
(dp1777
g9
S' Protein'
p1778
ssI171812
(dp1779
g9
S' Domain'
p1780
ssI515877
(dp1781
g9
S' Gene'
p1782
ssI911142
(dp1783
g9
S' Protein'
p1784
ssI339751
(dp1785
g9
S' Protein'
p1786
ssI255785
(dp1787
g9
S' Protein'
p1788
ssI321323
(dp1789
g9
S' Article'
p1790
ssI659247
(dp1791
g9
S' Article'
p1792
ssI60283
(dp1793
g9
S' GenomicContext'
p1794
ssI702260
(dp1795
g9
S' Article'
p1796
ssI177975
(dp1797
g9
S' Protein'
p1798
ssI468793
(dp1799
g9
S' Gene'
p1800
ssI350010
(dp1801
g9
S' Protein'
p1802
ssI467679
(dp1803
g9
S' Gene'
p1804
ssI446271
(dp1805
g9
S' Protein'
p1806
ssI915588
(dp1807
g9
S' Protein'
p1808
ssI464707
(dp1809
g9
S' Gene'
p1810
ssI34296
(dp1811
g9
S' Gene'
p1812
ssI368458
(dp1813
g9
S' Protein'
p1814
ssI771917
(dp1815
g9
S' Article'
p1816
ssI477010
(dp1817
g9
S' Gene'
p1818
ssI468819
(dp1819
g9
S' Gene'
p1820
ssI909140
(dp1821
g9
S' Protein'
p1822
ssI714581
(dp1823
g9
S' Article'
p1824
ssI491350
(dp1825
g9
S' Gene'
p1826
ssI172345
(dp1827
g9
S' Domain'
p1828
ssI491354
(dp1829
g9
S' Gene'
p1830
ssI339745
(dp1831
g9
S' Protein'
p1832
ssI4752
(dp1833
g9
S' CellularComponent'
p1834
ssI929636
(dp1835
g9
S' Protein'
p1836
ssI628581
(dp1837
g9
S' Article'
p1838
ssI526186
(dp1839
g9
S' Gene'
p1840
ssI536431
(dp1841
g9
S' Article'
p1842
ssI466800
(dp1843
g9
S' Gene'
p1844
ssI368497
(dp1845
g9
S' Protein'
p1846
ssI204658
(dp1847
g9
S' Protein'
p1848
ssI924990
(dp1849
g9
S' Protein'
p1850
ssI567158
(dp1851
g9
S' Gene'
p1852
ssI353726
(dp1853
g9
S' Protein'
p1854
ssI927380
(dp1855
g9
S' Protein'
p1856
ssI677756
(dp1857
g9
S' Article'
p1858
ssI221478
(dp1859
g9
S' Protein'
p1860
ssI452479
(dp1861
g9
S' Protein'
p1862
ssI4759
(dp1863
g9
S' CellularComponent'
p1864
ssI208771
(dp1865
g9
S' Protein'
p1866
ssI216585
(dp1867
g9
S' Protein'
p1868
ssI941957
(dp1869
g9
S' Protein'
p1870
ssI164161
(dp1871
g9
S' Domain'
p1872
ssI341655
(dp1873
g9
S' Protein'
p1874
ssI214403
(dp1875
g9
S' Protein'
p1876
ssI221074
(dp1877
g9
S' Article'
p1878
ssI167827
(dp1879
g9
S' Domain'
p1880
ssI44948
(dp1881
g9
S' Gene'
p1882
ssI470934
(dp1883
g9
S' Gene'
p1884
ssI530327
(dp1885
g9
S' Gene'
p1886
ssI206746
(dp1887
g9
S' Protein'
p1888
ssI458651
(dp1889
g9
S' Gene'
p1890
ssI202654
(dp1891
g9
S' Protein'
p1892
ssI337824
(dp1893
g9
S' Protein'
p1894
ssI567201
(dp1895
g9
S' Gene'
p1896
ssI206241
(dp1897
g9
S' Protein'
p1898
ssI287387
(dp1899
g9
S' Protein'
p1900
ssI468900
(dp1901
g9
S' Gene'
p1902
ssI575473
(dp1903
g9
S' Gene'
p1904
ssI294824
(dp1905
g9
S' Protein'
p1906
ssI825258
(dp1907
g9
S' Gene'
p1908
ssI917419
(dp1909
g9
S' Protein'
p1910
ssI468160
(dp1911
g9
S' Gene'
p1912
ssI909230
(dp1913
g9
S' Protein'
p1914
ssI208815
(dp1915
g9
S' Protein'
p1916
ssI913329
(dp1917
g9
S' Protein'
p1918
ssI221106
(dp1919
g9
S' Protein'
p1920
ssI248819
(dp1921
g9
S' Protein'
p1922
ssI907188
(dp1923
g9
S' Protein'
p1924
ssI403381
(dp1925
g9
S' Protein'
p1926
ssI44982
(dp1927
g9
S' Gene'
p1928
ssI169916
(dp1929
g9
S' Family'
p1930
ssI905151
(dp1931
g9
S' Protein'
p1932
ssI40896
(dp1933
g9
S' Gene'
p1934
ssI215371
(dp1935
g9
S' Protein'
p1936
ssI210884
(dp1937
g9
S' Protein'
p1938
ssI52214
(dp1939
g9
S' Gene'
p1940
ssI28614
(dp1941
g9
S' Gene'
p1942
ssI389064
(dp1943
g9
S' Protein'
p1944
ssI429388
(dp1945
g9
S' Protein'
p1946
ssI505802
(dp1947
g9
S' Gene'
p1948
ssI370635
(dp1949
g9
S' Protein'
p1950
ssI407500
(dp1951
g9
S' Protein'
p1952
ssI164173
(dp1953
g9
S' Domain'
p1954
ssI292816
(dp1955
g9
S' Protein'
p1956
ssI584503
(dp1957
g9
S' Gene'
p1958
ssI573394
(dp1959
g9
S' Gene'
p1960
ssI210902
(dp1961
g9
S' Protein'
p1962
ssI290775
(dp1963
g9
S' Protein'
p1964
ssI473048
(dp1965
g9
S' Gene'
p1966
ssI339929
(dp1967
g9
S' Protein'
p1968
ssI225242
(dp1969
g9
S' Protein'
p1970
ssI32731
(dp1971
g9
S' Gene'
p1972
ssI204764
(dp1973
g9
S' Protein'
p1974
ssI919517
(dp1975
g9
S' Protein'
p1976
ssI473054
(dp1977
g9
S' Gene'
p1978
ssI219138
(dp1979
g9
S' Protein'
p1980
ssI940003
(dp1981
g9
S' Protein'
p1982
ssI454630
(dp1983
g9
S' Pathway'
p1984
ssI222545
(dp1985
g9
S' Protein'
p1986
ssI905296
(dp1987
g9
S' Protein'
p1988
ssI230396
(dp1989
g9
S' Protein'
p1990
ssI317419
(dp1991
g9
S' Protein'
p1992
ssI264530
(dp1993
g9
S' Article'
p1994
ssI927728
(dp1995
g9
S' Protein'
p1996
ssI229032
(dp1997
g9
S' Protein'
p1998
ssI476158
(dp1999
g9
S' Gene'
p2000
ssI483318
(dp2001
g9
S' Gene'
p2002
ssI927733
(dp2003
g9
S' Protein'
p2004
ssI202748
(dp2005
g9
S' Protein'
p2006
ssI930414
(dp2007
g9
S' Protein'
p2008
ssI909311
(dp2009
g9
S' Protein'
p2010
sssS'graph'
p2011
(dp2012
sS'edge'
p2013
(dp2014
I466946
(dp2015
I61386
(dp2016
S'Edge Probability'
p2017
F0.031479
ssI277
(dp2018
g2017
F0.215247
ssI221074
(dp2019
g2017
F0.03753
sssI204804
(dp2020
I204286
(dp2021
g2017
F0.291363
ssI230396
(dp2022
g2017
F0.13453
ssI907429
(dp2023
g2017
F0.096884
ssI224558
(dp2024
g2017
F0.105552
ssI248717
(dp2025
g2017
F0.288283
sssI202758
(dp2026
I62137
(dp2027
g2017
F0.83973
ssI81118
(dp2028
g2017
F0.179149
sssI221193
(dp2029
I915921
(dp2030
g2017
F0.213011
ssI905298
(dp2031
g2017
F0.112899
ssI921562
(dp2032
g2017
F0.174276
sssI776203
(dp2033
I28863
(dp2034
g2017
F0.370383
sssI452621
(dp2035
I25098
(dp2036
g2017
F0.178412
sssI165902
(dp2037
I356768
(dp2038
g2017
F0.279423
ssI214403
(dp2039
g2017
F0.37784
ssI217196
(dp2040
g2017
F0.37784
ssI228158
(dp2041
g2017
F0.385579
ssI228159
(dp2042
g2017
F0.37784
sssI2063
(dp2043
I568080
(dp2044
g2017
F0.337805
ssI460090
(dp2045
g2017
F0.324382
ssI565957
(dp2046
g2017
F0.337805
ssI463645
(dp2047
g2017
F0.337805
sssI927760
(dp2048
I208771
(dp2049
g2017
F0.185943
ssI929084
(dp2050
g2017
F0.229902
ssI920430
(dp2051
g2017
F0.409783
sssI202769
(dp2052
I127792
(dp2053
g2017
F0.062219
ssI291417
(dp2054
g2017
F0.0294
ssI25134
(dp2055
g2017
F0.159165
sssI509973
(dp2056
I997321
(dp2057
g2017
F0.459591
ssI5139
(dp2058
g2017
F0.54597
ssI353940
(dp2059
g2017
F0.044677
ssI377741
(dp2060
g2017
F0.044677
sssI157719
(dp2061
I46315
(dp2062
g2017
F0.248845
ssI46318
(dp2063
g2017
F0.240941
ssI41910
(dp2064
g2017
F0.240941
sssI657436
(dp2065
I457952
(dp2066
g2017
F0.058091
ssI469484
(dp2067
g2017
F0.053566
ssI477010
(dp2068
g2017
F0.05916
ssI465685
(dp2069
g2017
F0.055198
ssI479926
(dp2070
g2017
F0.05916
ssI463547
(dp2071
g2017
F0.045706
sssI948570
(dp2072
I941473
(dp2073
g2017
F0.107531
ssI291418
(dp2074
g2017
F0.037911
ssI252557
(dp2075
g2017
F0.193125
sssI6174
(dp2076
I397536
(dp2077
g2017
F0.19543
ssI397481
(dp2078
g2017
F0.19543
ssI467628
(dp2079
g2017
F0.216128
ssI433230
(dp2080
g2017
F0.19543
ssI466450
(dp2081
g2017
F0.238401
ssI450422
(dp2082
g2017
F0.19543
ssI34296
(dp2083
g2017
F0.222436
ssI472925
(dp2084
g2017
F0.226529
sssI51233
(dp2085
I247386
(dp2086
g2017
F0.038866
ssI158450
(dp2087
g2017
F0.032833
ssI21710
(dp2088
g2017
F0.71215
sssI465709
(dp2089
I504618
(dp2090
g2017
F0.69644
ssI312188
(dp2091
g2017
F0.034516
ssI277
(dp2092
g2017
F0.211358
ssI221074
(dp2093
g2017
F0.034481
ssI231919
(dp2094
g2017
F0.034282
sssI468160
(dp2095
I46021
(dp2096
g2017
F0.642193
ssI61386
(dp2097
g2017
F0.031479
ssI372099
(dp2098
g2017
F0.038278
ssI295853
(dp2099
g2017
F0.038263
ssI219087
(dp2100
g2017
F0.038258
sssI2090
(dp2101
I225474
(dp2102
g2017
F0.340767
ssI210884
(dp2103
g2017
F0.356742
ssI565957
(dp2104
g2017
F0.331495
ssI35119
(dp2105
g2017
F0.318323
ssI167378
(dp2106
g2017
F0.687891
ssI263957
(dp2107
g2017
F0.369323
ssI707254
(dp2108
g2017
F0.355288
sssI32812
(dp2109
I520816
(dp2110
g2017
F0.342276
ssI654155
(dp2111
g2017
F0.342276
ssI385515
(dp2112
g2017
F0.579243
ssI628581
(dp2113
g2017
F0.342276
ssI381431
(dp2114
g2017
F0.579243
sssI368687
(dp2115
I4819
(dp2116
g2017
F0.147788
ssI174995
(dp2117
g2017
F0.284057
ssI4903
(dp2118
g2017
F0.165223
sssI174128
(dp2119
I202826
(dp2120
g2017
F0.311207
ssI291629
(dp2121
g2017
F0.217845
ssI254002
(dp2122
g2017
F0.311207
ssI445849
(dp2123
g2017
F0.225528
ssI445853
(dp2124
g2017
F0.217845
ssI215647
(dp2125
g2017
F0.311207
sssI49
(dp2126
I468503
(dp2127
g2017
F0.249538
ssI469147
(dp2128
g2017
F0.227689
ssI467679
(dp2129
g2017
F0.227689
ssI631919
(dp2130
g2017
F0.214692
sssI254002
(dp2131
I174128
g2122
ssI329779
(dp2132
I13119
(dp2133
g2017
F0.213388
sssI895028
(dp2134
I458955
(dp2135
g2017
F0.716767
ssI62125
(dp2136
g2017
F0.5
sssI251959
(dp2137
I255391
(dp2138
g2017
F0.22351
sssI58
(dp2139
I433230
(dp2140
g2017
F0.202585
ssI29495
(dp2141
g2017
F0.236638
ssI468793
(dp2142
g2017
F0.277959
ssI564826
(dp2143
g2017
F0.259345
ssI455165
(dp2144
g2017
F0.24904
ssI627198
(dp2145
g2017
F0.194793
sssI905276
(dp2146
I291417
(dp2147
g2017
F0.0294
ssI264346
(dp2148
g2017
F0.101666
ssI907973
(dp2149
g2017
F0.141424
ssI911142
(dp2150
g2017
F0.197226
sssI163901
(dp2151
I229840
(dp2152
g2017
F0.413065
ssI334922
(dp2153
g2017
F0.303679
sssI444480
(dp2154
I252557
(dp2155
g2017
F0.43422
sssI707254
(dp2156
I2090
g2108
ssI61510
(dp2157
I41507
(dp2158
g2017
F0.455284
sssI245831
(dp2159
I25168
(dp2160
g2017
F0.177436
ssI25177
(dp2161
g2017
F0.233565
ssI61386
(dp2162
g2017
F0.030138
ssI466535
(dp2163
g2017
F0.9
ssI260391
(dp2164
g2017
F0.043611
sssI927816
(dp2165
I906504
(dp2166
g2017
F0.546022
ssI238513
(dp2167
g2017
F0.158856
ssI921756
(dp2168
g2017
F0.349604
sssI387146
(dp2169
I2152
(dp2170
g2017
F0.165247
ssI2394
(dp2171
g2017
F0.18092
sssI20558
(dp2172
I339929
(dp2173
g2017
F0.401389
ssI627026
(dp2174
g2017
F0.420328
ssI554837
(dp2175
g2017
F0.420328
ssI2962
(dp2176
g2017
F0.585634
ssI30181
(dp2177
g2017
F0.431025
sssI509965
(dp2178
I304344
(dp2179
g2017
F0.9
ssI846635
(dp2180
g2017
F0.558317
ssI377741
(dp2181
g2017
F0.044154
sssI575568
(dp2182
I127792
(dp2183
g2017
F0.048568
ssI465566
(dp2184
g2017
F0.69644
sssI164173
(dp2185
I437567
(dp2186
g2017
F0.186818
sssI905298
(dp2187
I928472
(dp2188
g2017
F0.115652
ssI221193
g2031
sI907667
(dp2189
g2017
F0.126301
ssI203337
(dp2190
g2017
F0.179679
sssI83
(dp2191
I499928
(dp2192
g2017
F0.275299
ssI564826
(dp2193
g2017
F0.246656
ssI330295
(dp2194
g2017
F0.201113
sssI880725
(dp2195
I809808
(dp2196
g2017
F0.300163
sssI25167
(dp2197
I254206
(dp2198
g2017
F0.26556
sssI213007
(dp2199
I174995
(dp2200
g2017
F0.4
ssI41284
(dp2201
g2017
F0.036124
sssI270430
(dp2202
I248819
(dp2203
g2017
F0.328279
ssI923780
(dp2204
g2017
F0.096558
sssI479327
(dp2205
I217350
(dp2206
g2017
F0.051272
sssI321637
(dp2207
I165194
(dp2208
g2017
F0.315337
sssI854119
(dp2209
I504618
(dp2210
g2017
F0.678456
sssI2152
(dp2211
I427462
(dp2212
g2017
F0.165247
ssI387146
g2170
sI415117
(dp2213
g2017
F0.165247
ssI387600
(dp2214
g2017
F0.165247
ssI437752
(dp2215
g2017
F0.165247
ssI446271
(dp2216
g2017
F0.165247
sssI4203
(dp2217
I567158
(dp2218
g2017
F0.415828
ssI332168
(dp2219
g2017
F0.28671
ssI334922
(dp2220
g2017
F0.296821
ssI472616
(dp2221
g2017
F0.387981
ssI537366
(dp2222
g2017
F0.309769
ssI248727
(dp2223
g2017
F0.424029
ssI376414
(dp2224
g2017
F0.28671
sssI217196
(dp2225
I941473
(dp2226
g2017
F0.425757
ssI339751
(dp2227
g2017
F0.377156
ssI217195
(dp2228
g2017
F0.455901
ssI514285
(dp2229
g2017
F0.9
ssI165902
g2040
sI340500
(dp2230
g2017
F0.106298
ssI250830
(dp2231
g2017
F0.161356
ssI946360
(dp2232
g2017
F0.272588
sssI217198
(dp2233
I904984
(dp2234
g2017
F0.115431
ssI940929
(dp2235
g2017
F0.261919
ssI217195
(dp2236
g2017
F0.455901
ssI939541
(dp2237
g2017
F0.386017
ssI248254
(dp2238
g2017
F0.29819
sssI61551
(dp2239
I825258
(dp2240
g2017
F0.308904
ssI43459
(dp2241
g2017
F0.288217
sssI577648
(dp2242
I578793
(dp2243
g2017
F0.055506
sssI335985
(dp2244
I4904
(dp2245
g2017
F0.193774
ssI247386
(dp2246
g2017
F0.028174
ssI163925
(dp2247
g2017
F0.198694
ssI13119
(dp2248
g2017
F0.213388
sssI217202
(dp2249
I508677
(dp2250
g2017
F0.142916
sssI6262
(dp2251
I35329
(dp2252
g2017
F0.315142
ssI62442
(dp2253
g2017
F0.306205
ssI472925
(dp2254
g2017
F0.299448
ssI461271
(dp2255
g2017
F0.328183
ssI35260
(dp2256
g2017
F0.27216
ssI455165
(dp2257
g2017
F0.294038
sssI172151
(dp2258
I260686
(dp2259
g2017
F0.345746
ssI376470
(dp2260
g2017
F0.242022
sssI247931
(dp2261
I25176
(dp2262
g2017
F0.198392
ssI291417
(dp2263
g2017
F0.0294
ssI247386
(dp2264
g2017
F0.038097
sssI2069
(dp2265
I289443
(dp2266
g2017
F0.28674
ssI395804
(dp2267
g2017
F0.212052
ssI290367
(dp2268
g2017
F0.296852
sssI927728
(dp2269
I916454
(dp2270
g2017
F0.421827
sssI923780
(dp2271
I248254
(dp2272
g2017
F0.146528
ssI270430
g2204
ssI462987
(dp2273
I513523
(dp2274
g2017
F0.642193
ssI7459
(dp2275
g2017
F0.467265
ssI366420
(dp2276
g2017
F0.752363
ssI217350
(dp2277
g2017
F0.051684
ssI219087
(dp2278
g2017
F0.037567
sssI233616
(dp2279
I6520
(dp2280
g2017
F0.313473
sssI465944
(dp2281
I809812
(dp2282
g2017
F0.423899
ssI4756
(dp2283
g2017
F0.24413
ssI372099
(dp2284
g2017
F0.037586
ssI4812
(dp2285
g2017
F0.191718
sssI233619
(dp2286
I905296
(dp2287
g2017
F0.219013
ssI247386
(dp2288
g2017
F0.036799
sssI264346
(dp2289
I926912
(dp2290
g2017
F0.152703
ssI916609
(dp2291
g2017
F0.40188
ssI916642
(dp2292
g2017
F0.143568
ssI929636
(dp2293
g2017
F0.401245
ssI907429
(dp2294
g2017
F0.376792
ssI206241
(dp2295
g2017
F0.350675
ssI906504
(dp2296
g2017
F0.352892
ssI929453
(dp2297
g2017
F0.266612
ssI222545
(dp2298
g2017
F0.391339
ssI207955
(dp2299
g2017
F0.167257
ssI912916
(dp2300
g2017
F0.405332
ssI215833
(dp2301
g2017
F0.091645
ssI906683
(dp2302
g2017
F0.26956
ssI905276
g2148
sI910725
(dp2303
g2017
F0.495515
sssI469147
(dp2304
I49
g2128
sI7253
(dp2305
g2017
F0.202944
ssI217350
(dp2306
g2017
F0.050894
sssI921756
(dp2307
I927816
g2168
sI220329
(dp2308
g2017
F0.098014
ssI907188
(dp2309
g2017
F0.1175
sssI565957
(dp2310
I2090
g2104
sI809763
(dp2311
g2017
F0.485307
ssI2063
g2046
ssI942242
(dp2312
I904984
(dp2313
g2017
F0.328487
sssI907429
(dp2314
I916609
(dp2315
g2017
F0.396083
ssI204804
g2023
sI204658
(dp2316
g2017
F0.448681
ssI905878
(dp2317
g2017
F0.184384
ssI210884
(dp2318
g2017
F0.341319
ssI264346
g2294
ssI377741
(dp2319
I507493
(dp2320
g2017
F0.042902
ssI506727
(dp2321
g2017
F0.043691
ssI505802
(dp2322
g2017
F0.043691
ssI509965
g2181
sI509973
g2060
sI498425
(dp2323
g2017
F0.044677
ssI506495
(dp2324
g2017
F0.044154
sssI397481
(dp2325
I914681
(dp2326
g2017
F0.103347
ssI6174
g2078
sI5031
(dp2327
g2017
F0.146398
sssI444587
(dp2328
I18763
(dp2329
g2017
F0.196965
sssI428204
(dp2330
I167128
(dp2331
g2017
F0.183108
ssI165194
(dp2332
g2017
F0.286101
ssI171811
(dp2333
g2017
F0.319573
ssI171812
(dp2334
g2017
F0.305046
sssI286893
(dp2335
I35329
(dp2336
g2017
F0.288079
ssI465700
(dp2337
g2017
F0.307498
sssI911537
(dp2338
I916454
(dp2339
g2017
F0.136153
sssI227506
(dp2340
I249
(dp2341
g2017
F0.197396
ssI208303
(dp2342
g2017
F0.11751
ssI910725
(dp2343
g2017
F0.356737
ssI920430
(dp2344
g2017
F0.085556
ssI291417
(dp2345
g2017
F0.0294
sssI946360
(dp2346
I912347
(dp2347
g2017
F0.311698
ssI244315
(dp2348
g2017
F0.167442
ssI217196
g2232
sI248254
(dp2349
g2017
F0.257998
sssI241849
(dp2350
I127792
(dp2351
g2017
F0.062917
ssI904957
(dp2352
g2017
F0.741315
sssI360634
(dp2353
I164161
(dp2354
g2017
F0.195636
ssI465685
(dp2355
g2017
F0.783495
sssI506495
(dp2356
I857601
(dp2357
g2017
F0.628412
ssI212131
(dp2358
g2017
F0.044153
ssI41284
(dp2359
g2017
F0.040724
ssI377741
g2324
ssI381117
(dp2360
I18763
(dp2361
g2017
F0.196965
ssI165428
(dp2362
g2017
F0.137993
sssI28863
(dp2363
I4752
(dp2364
g2017
F0.217478
ssI291417
(dp2365
g2017
F0.035373
ssI158450
(dp2366
g2017
F0.030902
ssI776203
g2034
sI5031
(dp2367
g2017
F0.181216
sssI225474
(dp2368
I2090
g2102
ssI387268
(dp2369
I52683
(dp2370
g2017
F0.073292
ssI41915
(dp2371
g2017
F0.073292
ssI52214
(dp2372
g2017
F0.07416
sssI575687
(dp2373
I291417
(dp2374
g2017
F0.035373
ssI247386
(dp2375
g2017
F0.044645
ssI158450
(dp2376
g2017
F0.037715
sssI929992
(dp2377
I208771
(dp2378
g2017
F0.287604
ssI918214
(dp2379
g2017
F0.246917
sssI6345
(dp2380
I34285
(dp2381
g2017
F0.34795
ssI367486
(dp2382
g2017
F0.296283
sssI49354
(dp2383
I466800
(dp2384
g2017
F0.69644
sssI458955
(dp2385
I4752
(dp2386
g2017
F0.217478
ssI247386
(dp2387
g2017
F0.035974
ssI895028
g2135
sI61386
(dp2388
g2017
F0.031479
ssI219087
(dp2389
g2017
F0.034772
sssI30924
(dp2390
I4819
(dp2391
g2017
F0.218093
ssI277
(dp2392
g2017
F0.211358
sssI919759
(dp2393
I291417
(dp2394
g2017
F0.0294
ssI920650
(dp2395
g2017
F0.259097
ssI208771
(dp2396
g2017
F0.303782
ssI929185
(dp2397
g2017
F0.269825
sssI377040
(dp2398
I377043
(dp2399
g2017
F0.268356
ssI377044
(dp2400
g2017
F0.268356
sssI377043
(dp2401
I377040
g2399
sI4713
(dp2402
g2017
F0.200115
ssI13119
(dp2403
g2017
F0.213388
sssI377044
(dp2404
I377040
g2400
ssI569557
(dp2405
I4904
(dp2406
g2017
F0.246423
ssI4965
(dp2407
g2017
F0.264711
sssI172247
(dp2408
I260686
(dp2409
g2017
F0.352119
sssI499928
(dp2410
I83
g2192
ssI950491
(dp2411
I395804
(dp2412
g2017
F0.246279
sssI397536
(dp2413
I6174
g2077
sI5031
(dp2414
g2017
F0.146398
sssI514285
(dp2415
I4387
(dp2416
g2017
F0.378059
ssI28614
(dp2417
g2017
F0.642193
ssI504618
(dp2418
g2017
F0.69644
ssI217195
(dp2419
g2017
F0.455901
ssI217196
g2229
sI291418
(dp2420
g2017
F0.03585
sssI297200
(dp2421
I4715
(dp2422
g2017
F0.248388
sssI551153
(dp2423
I43459
(dp2424
g2017
F0.380057
ssI43460
(dp2425
g2017
F0.387508
sssI942322
(dp2426
I341057
(dp2427
g2017
F0.160704
ssI939765
(dp2428
g2017
F0.189509
sssI207091
(dp2429
I206789
(dp2430
g2017
F0.235253
ssI922886
(dp2431
g2017
F0.096362
ssI239062
(dp2432
g2017
F0.559242
ssI259019
(dp2433
g2017
F0.243342
ssI248717
(dp2434
g2017
F0.192663
ssI211510
(dp2435
g2017
F0.348642
ssI922711
(dp2436
g2017
F0.467526
ssI922047
(dp2437
g2017
F0.2996
sssI483572
(dp2438
I217350
(dp2439
g2017
F0.051684
ssI255391
(dp2440
g2017
F0.9
sssI444661
(dp2441
I168466
(dp2442
g2017
F0.162286
sssI249
(dp2443
I711861
(dp2444
g2017
F0.21276
ssI164226
(dp2445
g2017
F0.437277
ssI29667
(dp2446
g2017
F0.181131
ssI247760
(dp2447
g2017
F0.204358
ssI44982
(dp2448
g2017
F0.198512
ssI332168
(dp2449
g2017
F0.138177
ssI37486
(dp2450
g2017
F0.167398
ssI458032
(dp2451
g2017
F0.169001
ssI227506
g2341
sI214403
(dp2452
g2017
F0.197396
ssI246100
(dp2453
g2017
F0.204358
ssI554837
(dp2454
g2017
F0.159354
ssI225238
(dp2455
g2017
F0.190672
ssI459255
(dp2456
g2017
F0.190624
ssI473823
(dp2457
g2017
F0.172815
ssI842589
(dp2458
g2017
F0.21276
ssI354751
(dp2459
g2017
F0.14305
sssI604411
(dp2460
I541613
(dp2461
g2017
F0.349303
sssI90364
(dp2462
I203254
(dp2463
g2017
F0.338495
ssI33735
(dp2464
g2017
F0.244362
sssI254206
(dp2465
I25177
(dp2466
g2017
F0.232455
ssI25178
(dp2467
g2017
F0.230918
ssI291419
(dp2468
g2017
F0.20989
ssI25167
g2198
ssI930049
(dp2469
I218914
(dp2470
g2017
F0.405595
ssI257027
(dp2471
g2017
F0.529262
sssI925954
(dp2472
I916454
(dp2473
g2017
F0.13915
sssI434436
(dp2474
I174995
(dp2475
g2017
F0.28
sssI217350
(dp2476
I457952
(dp2477
g2017
F0.051684
ssI481761
(dp2478
g2017
F0.053193
ssI465700
(dp2479
g2017
F0.048027
ssI462987
g2277
sI481645
(dp2480
g2017
F0.052136
ssI477010
(dp2481
g2017
F0.052635
ssI483572
g2439
sI468821
(dp2482
g2017
F0.052635
ssI466199
(dp2483
g2017
F0.051272
ssI482180
(dp2484
g2017
F0.053823
ssI469147
g2306
sI474685
(dp2485
g2017
F0.047658
ssI479327
g2206
ssI919817
(dp2486
I906504
(dp2487
g2017
F0.123125
sssI14039
(dp2488
I319728
(dp2489
g2017
F0.23383
ssI314073
(dp2490
g2017
F0.244107
ssI206789
(dp2491
g2017
F0.334043
sssI164226
(dp2492
I249
g2445
sI215647
(dp2493
g2017
F0.254543
sssI520465
(dp2494
I479926
(dp2495
g2017
F0.077818
ssI466347
(dp2496
g2017
F0.063789
ssI483389
(dp2497
g2017
F0.075802
ssI466800
(dp2498
g2017
F0.075243
ssI467766
(dp2499
g2017
F0.076412
ssI474999
(dp2500
g2017
F0.077079
ssI462493
(dp2501
g2017
F0.075802
sssI293139
(dp2502
I248819
(dp2503
g2017
F0.115485
sssI920650
(dp2504
I919759
g2395
ssI277
(dp2505
I466946
g2018
sI473871
(dp2506
g2017
F0.208125
ssI530327
(dp2507
g2017
F0.215247
ssI465709
g2092
sI475567
(dp2508
g2017
F0.220104
ssI339764
(dp2509
g2017
F0.217008
ssI465087
(dp2510
g2017
F0.226528
ssI527937
(dp2511
g2017
F0.215247
ssI464707
(dp2512
g2017
F0.205365
ssI28614
(dp2513
g2017
F0.200833
ssI30924
g2392
sI579279
(dp2514
g2017
F0.215247
ssI27090
(dp2515
g2017
F0.220104
ssI570711
(dp2516
g2017
F0.235902
ssI41946
(dp2517
g2017
F0.226528
ssI467679
(dp2518
g2017
F0.215247
ssI29667
(dp2519
g2017
F0.215247
ssI435686
(dp2520
g2017
F0.217008
ssI517350
(dp2521
g2017
F0.226528
ssI345581
(dp2522
g2017
F0.217008
ssI37490
(dp2523
g2017
F0.220104
ssI34296
(dp2524
g2017
F0.215247
ssI627198
(dp2525
g2017
F0.177185
sssI14041
(dp2526
I362125
(dp2527
g2017
F0.281646
sssI569624
(dp2528
I158450
(dp2529
g2017
F0.039276
ssI250830
(dp2530
g2017
F0.9
sssI215371
(dp2531
I25168
(dp2532
g2017
F0.178374
ssI25177
(dp2533
g2017
F0.234799
ssI61386
(dp2534
g2017
F0.030138
ssI25195
(dp2535
g2017
F0.213017
ssI4981
(dp2536
g2017
F0.299206
sssI428079
(dp2537
I291569
(dp2538
g2017
F0.29609
sssI289
(dp2539
I468819
(dp2540
g2017
F0.339475
ssI529483
(dp2541
g2017
F0.325985
ssI466199
(dp2542
g2017
F0.316741
sssI4387
(dp2543
I350010
(dp2544
g2017
F0.325351
ssI515172
(dp2545
g2017
F0.393703
ssI514285
g2416
ssI465189
(dp2546
I221074
(dp2547
g2017
F0.032059
ssI597564
(dp2548
g2017
F0.130155
sssI471334
(dp2549
I846284
(dp2550
g2017
F0.606287
ssI809742
(dp2551
g2017
F0.413065
ssI231919
(dp2552
g2017
F0.038
sssI260391
(dp2553
I464707
(dp2554
g2017
F0.032368
ssI465700
(dp2555
g2017
F0.034894
ssI245831
g2164
sI368458
(dp2556
g2017
F0.032252
ssI256491
(dp2557
g2017
F0.044504
ssI470062
(dp2558
g2017
F0.035508
ssI474685
(dp2559
g2017
F0.034627
ssI480913
(dp2560
g2017
F0.039106
ssI466450
(dp2561
g2017
F0.036977
ssI471733
(dp2562
g2017
F0.039631
ssI368497
(dp2563
g2017
F0.032252
ssI361724
(dp2564
g2017
F0.032252
ssI463645
(dp2565
g2017
F0.036487
ssI255391
(dp2566
g2017
F0.044504
sssI915752
(dp2567
I240585
(dp2568
g2017
F0.15381
ssI202654
(dp2569
g2017
F0.524927
sssI35119
(dp2570
I154024
(dp2571
g2017
F0.27628
ssI2090
g2105
sI8155
(dp2572
g2017
F0.381446
ssI41915
(dp2573
g2017
F0.227357
ssI247386
(dp2574
g2017
F0.037321
sssI332168
(dp2575
I4203
g2219
sI165746
(dp2576
g2017
F0.245819
ssI167827
(dp2577
g2017
F0.242085
ssI291417
(dp2578
g2017
F0.02058
ssI249
g2449
sI291551
(dp2579
g2017
F0.2405
sssI913714
(dp2580
I926936
(dp2581
g2017
F0.125713
ssI913139
(dp2582
g2017
F0.19201
ssI913822
(dp2583
g2017
F0.117512
sssI308
(dp2584
I527937
(dp2585
g2017
F0.254526
ssI230891
(dp2586
g2017
F0.258974
ssI33740
(dp2587
g2017
F0.247308
ssI328461
(dp2588
g2017
F0.154488
ssI387384
(dp2589
g2017
F0.181282
ssI408987
(dp2590
g2017
F0.187675
ssI468860
(dp2591
g2017
F0.265058
ssI627198
(dp2592
g2017
F0.204319
ssI488287
(dp2593
g2017
F0.247308
sssI252214
(dp2594
I165428
(dp2595
g2017
F0.195343
sssI626999
(dp2596
I2010
(dp2597
g2017
F0.255431
ssI826236
(dp2598
g2017
F0.325672
sssI387384
(dp2599
I308
g2589
ssI919865
(dp2600
I339745
(dp2601
g2017
F0.965936
ssI366070
(dp2602
g2017
F0.965936
sssI473823
(dp2603
I249
g2457
sI312188
(dp2604
g2017
F0.035881
ssI295853
(dp2605
g2017
F0.035884
sssI205118
(dp2606
I920184
(dp2607
g2017
F0.41337
sssI907583
(dp2608
I223216
(dp2609
g2017
F0.136841
ssI220329
(dp2610
g2017
F0.094534
ssI224794
(dp2611
g2017
F0.615813
ssI929084
(dp2612
g2017
F0.197986
sssI586048
(dp2613
I29434
(dp2614
g2017
F0.279778
sssI207169
(dp2615
I911142
(dp2616
g2017
F0.105063
ssI226029
(dp2617
g2017
F0.490344
ssI238703
(dp2618
g2017
F0.316726
ssI910480
(dp2619
g2017
F0.508067
ssI911989
(dp2620
g2017
F0.291323
ssI206591
(dp2621
g2017
F0.23732
sssI467628
(dp2622
I6174
g2079
ssI41284
(dp2623
I448
(dp2624
g2017
F0.205182
ssI214403
(dp2625
g2017
F0.036124
ssI297668
(dp2626
g2017
F0.025287
ssI450422
(dp2627
g2017
F0.025287
ssI506727
(dp2628
g2017
F0.040724
ssI997321
(dp2629
g2017
F0.148943
ssI952235
(dp2630
g2017
F0.036124
ssI307886
(dp2631
g2017
F0.025287
ssI213007
g2201
sI127792
(dp2632
g2017
F0.044885
ssI264530
(dp2633
g2017
F0.070335
ssI376470
(dp2634
g2017
F0.025287
ssI503396
(dp2635
g2017
F0.040724
ssI909311
(dp2636
g2017
F0.036124
ssI506495
g2359
ssI203079
(dp2637
I906504
(dp2638
g2017
F0.197989
ssI920430
(dp2639
g2017
F0.090089
sssI353726
(dp2640
I165609
(dp2641
g2017
F0.158864
sssI454985
(dp2642
I212131
(dp2643
g2017
F0.038546
ssI5676
(dp2644
g2017
F0.27191
ssI503573
(dp2645
g2017
F0.422388
sssI18763
(dp2646
I453607
(dp2647
g2017
F0.196965
ssI444587
g2329
sI429388
(dp2648
g2017
F0.196965
ssI381405
(dp2649
g2017
F0.196965
ssI407792
(dp2650
g2017
F0.196965
ssI351190
(dp2651
g2017
F0.196965
ssI427387
(dp2652
g2017
F0.196965
ssI381117
g2361
sI388606
(dp2653
g2017
F0.196965
sssI907597
(dp2654
I917066
(dp2655
g2017
F0.386347
ssI916454
(dp2656
g2017
F0.140943
sssI158031
(dp2657
I220431
(dp2658
g2017
F0.548585
sssI311632
(dp2659
I466450
(dp2660
g2017
F0.783495
sssI919889
(dp2661
I255391
(dp2662
g2017
F0.121723
sssI207186
(dp2663
I207187
(dp2664
g2017
F0.435468
sssI207187
(dp2665
I207186
g2664
sI212052
(dp2666
g2017
F0.746426
sssI246100
(dp2667
I249
g2453
sI202654
(dp2668
g2017
F0.17806
ssI25134
(dp2669
g2017
F0.163912
sssI323926
(dp2670
I127792
(dp2671
g2017
F0.047203
ssI167117
(dp2672
g2017
F0.192304
sssI343
(dp2673
I314336
(dp2674
g2017
F0.198533
ssI248934
(dp2675
g2017
F0.293621
ssI204764
(dp2676
g2017
F0.283619
ssI362125
(dp2677
g2017
F0.205535
ssI369780
(dp2678
g2017
F0.205535
ssI45594
(dp2679
g2017
F0.24958
ssI236411
(dp2680
g2017
F0.283619
ssI33980
(dp2681
g2017
F0.24958
ssI215486
(dp2682
g2017
F0.293621
sssI2394
(dp2683
I387146
g2171
sI450012
(dp2684
g2017
F0.18092
ssI2445
(dp2685
g2017
F0.538481
sssI481629
(dp2686
I61386
(dp2687
g2017
F0.031479
ssI372099
(dp2688
g2017
F0.039668
ssI312188
(dp2689
g2017
F0.039649
sssI393574
(dp2690
I395804
(dp2691
g2017
F0.142598
sssI163900
(dp2692
I229840
(dp2693
g2017
F0.389167
sssI4735
(dp2694
I45594
(dp2695
g2017
F0.314694
sssI481645
(dp2696
I503396
(dp2697
g2017
F0.606287
ssI217350
g2480
sI219087
(dp2698
g2017
F0.037895
sssI259019
(dp2699
I207091
g2433
ssI483389
(dp2700
I6520
(dp2701
g2017
F0.28286
ssI520465
g2497
sI221074
(dp2702
g2017
F0.037231
ssI372099
(dp2703
g2017
F0.037286
sssI909680
(dp2704
I239362
(dp2705
g2017
F0.374797
ssI912380
(dp2706
g2017
F0.10994
ssI927158
(dp2707
g2017
F0.121861
sssI911731
(dp2708
I916454
(dp2709
g2017
F0.154246
sssI202826
(dp2710
I25442
(dp2711
g2017
F0.178121
ssI25098
(dp2712
g2017
F0.237807
ssI174128
g2120
sI262993
(dp2713
g2017
F0.457761
ssI25108
(dp2714
g2017
F0.221883
ssI8155
(dp2715
g2017
F0.418102
sssI6520
(dp2716
I233616
g2280
sI526186
(dp2717
g2017
F0.303162
ssI483389
g2701
sI29677
(dp2718
g2017
F0.28286
sssI358779
(dp2719
I61386
(dp2720
g2017
F0.021096
ssI4756
(dp2721
g2017
F0.179985
sssI508290
(dp2722
I232561
(dp2723
g2017
F0.04256
ssI62442
(dp2724
g2017
F0.579824
sssI260488
(dp2725
I929308
(dp2726
g2017
F0.194178
ssI917066
(dp2727
g2017
F0.182821
ssI926748
(dp2728
g2017
F0.134334
sssI2445
(dp2729
I437752
(dp2730
g2017
F0.203443
ssI2394
g2685
sI427387
(dp2731
g2017
F0.203443
ssI429388
(dp2732
g2017
F0.203443
ssI427462
(dp2733
g2017
F0.203443
sssI319886
(dp2734
I167117
(dp2735
g2017
F0.188445
sssI6547
(dp2736
I717443
(dp2737
g2017
F0.463683
ssI6548
(dp2738
g2017
F0.611459
ssI248934
(dp2739
g2017
F0.471908
sssI6548
(dp2740
I6547
g2738
ssI248216
(dp2741
I224838
(dp2742
g2017
F0.091259
sssI260507
(dp2743
I167128
(dp2744
g2017
F0.261583
ssI1048
(dp2745
g2017
F0.44196
sssI913822
(dp2746
I913714
g2583
sI918267
(dp2747
g2017
F0.168611
ssI238130
(dp2748
g2017
F0.123123
sssI356768
(dp2749
I165902
g2038
ssI803233
(dp2750
I30181
(dp2751
g2017
F0.399768
sssI203170
(dp2752
I924690
(dp2753
g2017
F0.431067
ssI236411
(dp2754
g2017
F0.158398
ssI214628
(dp2755
g2017
F0.240191
ssI917419
(dp2756
g2017
F0.152859
sssI291569
(dp2757
I206746
(dp2758
g2017
F0.408577
ssI230595
(dp2759
g2017
F0.394659
ssI205692
(dp2760
g2017
F0.381216
ssI428079
g2538
ssI154024
(dp2761
I35119
g2571
ssI942151
(dp2762
I941404
(dp2763
g2017
F0.142147
sssI917933
(dp2764
I919041
(dp2765
g2017
F0.150077
sssI164161
(dp2766
I360634
g2354
ssI475567
(dp2767
I61386
(dp2768
g2017
F0.031479
ssI158450
(dp2769
g2017
F0.033437
ssI277
g2508
ssI909140
(dp2770
I291417
(dp2771
g2017
F0.0294
ssI907188
(dp2772
g2017
F0.228125
sssI511731
(dp2773
I6738
(dp2774
g2017
F0.322596
sssI223646
(dp2775
I910480
(dp2776
g2017
F0.240247
ssI915921
(dp2777
g2017
F0.131438
ssI217512
(dp2778
g2017
F0.281594
ssI202654
(dp2779
g2017
F0.226957
sssI434615
(dp2780
I6985
(dp2781
g2017
F0.422767
ssI171811
(dp2782
g2017
F0.315582
sssI35260
(dp2783
I291417
(dp2784
g2017
F0.035373
ssI7253
(dp2785
g2017
F0.191359
ssI6262
g2256
ssI463293
(dp2786
I448
(dp2787
g2017
F0.193114
ssI4807
(dp2788
g2017
F0.222058
ssI158450
(dp2789
g2017
F0.029417
ssI219087
(dp2790
g2017
F0.033658
ssI6738
(dp2791
g2017
F0.29069
ssI4819
(dp2792
g2017
F0.195402
sssI248254
(dp2793
I941473
(dp2794
g2017
F0.496045
ssI226051
(dp2795
g2017
F0.115503
ssI923780
g2272
sI922823
(dp2796
g2017
F0.205841
ssI250830
(dp2797
g2017
F0.109321
ssI217198
g2238
sI943729
(dp2798
g2017
F0.297163
ssI294291
(dp2799
g2017
F0.101683
ssI340500
(dp2800
g2017
F0.180815
ssI248526
(dp2801
g2017
F0.116491
ssI220887
(dp2802
g2017
F0.114842
ssI946360
g2349
sI923070
(dp2803
g2017
F0.181966
ssI291418
(dp2804
g2017
F0.037911
ssI924796
(dp2805
g2017
F0.131194
ssI351070
(dp2806
g2017
F0.112958
sssI164287
(dp2807
I364529
(dp2808
g2017
F0.169379
ssI400203
(dp2809
g2017
F0.164705
ssI318839
(dp2810
g2017
F0.175352
sssI448
(dp2811
I29856
(dp2812
g2017
F0.208957
ssI41284
g2624
sI458032
(dp2813
g2017
F0.194964
ssI475413
(dp2814
g2017
F0.208957
ssI466199
(dp2815
g2017
F0.208957
ssI463293
g2787
sI465439
(dp2816
g2017
F0.213672
sssI43459
(dp2817
I551153
g2424
sI5031
(dp2818
g2017
F0.181216
ssI43460
(dp2819
g2017
F0.3
ssI4812
(dp2820
g2017
F0.182171
ssI61551
g2241
ssI43460
(dp2821
I551153
g2425
sI43459
g2819
sI4965
(dp2822
g2017
F0.246985
sssI941473
(dp2823
I938658
(dp2824
g2017
F0.165123
ssI217196
g2226
sI948570
g2073
sI912347
(dp2825
g2017
F0.230362
ssI291418
(dp2826
g2017
F0.037911
ssI248254
g2794
ssI938442
(dp2827
I904984
(dp2828
g2017
F0.1496
sssI846284
(dp2829
I471334
g2550
ssI373154
(dp2830
I168466
(dp2831
g2017
F0.158194
ssI165428
(dp2832
g2017
F0.137993
ssI173143
(dp2833
g2017
F0.151184
sssI920015
(dp2834
I906504
(dp2835
g2017
F0.187943
sssI229840
(dp2836
I291418
(dp2837
g2017
F0.037911
ssI163900
g2693
sI163901
g2152
sI537366
(dp2838
g2017
F0.83973
sssI915921
(dp2839
I221193
g2030
sI223646
g2777
ssI27090
(dp2840
I158450
(dp2841
g2017
F0.026964
ssI277
g2515
ssI461271
(dp2842
I6262
g2255
ssI954841
(dp2843
I911989
(dp2844
g2017
F0.181912
sssI519247
(dp2845
I6738
(dp2846
g2017
F0.317662
sssI381405
(dp2847
I18763
g2649
ssI481761
(dp2848
I217350
g2478
sI219087
(dp2849
g2017
F0.038663
sssI911844
(dp2850
I291417
(dp2851
g2017
F0.0294
ssI240585
(dp2852
g2017
F0.133078
ssI211389
(dp2853
g2017
F0.091377
ssI916189
(dp2854
g2017
F0.153709
sssI926912
(dp2855
I916096
(dp2856
g2017
F0.157529
ssI264346
g2290
sI910725
(dp2857
g2017
F0.090264
ssI218654
(dp2858
g2017
F0.159511
ssI919517
(dp2859
g2017
F0.48893
sssI256491
(dp2860
I474999
(dp2861
g2017
F0.9
ssI260391
g2557
ssI469484
(dp2862
I149186
(dp2863
g2017
F0.362875
ssI372099
(dp2864
g2017
F0.034658
ssI5031
(dp2865
g2017
F0.190714
ssI208201
(dp2866
g2017
F0.783495
ssI61386
(dp2867
g2017
F0.031479
ssI370417
(dp2868
g2017
F0.783495
ssI221074
(dp2869
g2017
F0.034607
ssI657436
g2067
ssI922093
(dp2870
I916609
(dp2871
g2017
F0.194414
ssI907188
(dp2872
g2017
F0.404461
ssI239062
(dp2873
g2017
F0.162331
sssI231919
(dp2874
I466199
(dp2875
g2017
F0.037016
ssI458155
(dp2876
g2017
F0.033935
ssI472616
(dp2877
g2017
F0.038858
ssI471334
g2552
sI481959
(dp2878
g2017
F0.03938
ssI476584
(dp2879
g2017
F0.037016
ssI466860
(dp2880
g2017
F0.038
ssI464683
(dp2881
g2017
F0.030944
ssI475788
(dp2882
g2017
F0.035119
ssI465709
g2094
sI480815
(dp2883
g2017
F0.03938
ssI458032
(dp2884
g2017
F0.028799
ssI468017
(dp2885
g2017
F0.03764
ssI479061
(dp2886
g2017
F0.03938
ssI470934
(dp2887
g2017
F0.038403
ssI474999
(dp2888
g2017
F0.03764
ssI472751
(dp2889
g2017
F0.038858
ssI462493
(dp2890
g2017
F0.037016
ssI465087
(dp2891
g2017
F0.034673
sssI166385
(dp2892
I376436
(dp2893
g2017
F0.243441
sssI469075
(dp2894
I19977
(dp2895
g2017
F0.320167
ssI372099
(dp2896
g2017
F0.037915
sssI248308
(dp2897
I905296
(dp2898
g2017
F0.352429
ssI925473
(dp2899
g2017
F0.110002
sssI203254
(dp2900
I291417
(dp2901
g2017
F0.0294
ssI264530
(dp2902
g2017
F0.077862
ssI90364
g2463
ssI381431
(dp2903
I165609
(dp2904
g2017
F0.158864
ssI32812
g2114
sI173143
(dp2905
g2017
F0.158271
sssI578793
(dp2906
I577648
g2243
sI468793
(dp2907
g2017
F0.642193
sssI455165
(dp2908
I6262
g2257
sI4812
(dp2909
g2017
F0.173807
ssI212050
(dp2910
g2017
F0.056241
ssI127734
(dp2911
g2017
F0.246535
ssI346425
(dp2912
g2017
F0.752363
ssI58
g2144
sI312188
(dp2913
g2017
F0.034279
sssI627198
(dp2914
I5624
(dp2915
g2017
F0.17831
ssI58
g2145
sI308
g2592
sI277
g2525
sI5031
(dp2916
g2017
F0.160343
sssI163925
(dp2917
I335985
g2247
ssI35329
(dp2918
I158450
(dp2919
g2017
F0.028583
ssI465700
(dp2920
g2017
F0.606287
ssI286893
g2336
sI6262
g2252
sI753381
(dp2921
g2017
F0.309561
sssI466347
(dp2922
I520465
g2496
ssI877061
(dp2923
I809742
(dp2924
g2017
F0.419474
sssI950793
(dp2925
I914681
(dp2926
g2017
F0.094622
sssI25098
(dp2927
I423875
(dp2928
g2017
F0.178412
ssI216744
(dp2929
g2017
F0.233034
ssI216585
(dp2930
g2017
F0.246193
ssI202826
g2712
sI385515
(dp2931
g2017
F0.178412
ssI407500
(dp2932
g2017
F0.178412
ssI452621
g2036
sI208604
(dp2933
g2017
F0.237807
ssI446271
(dp2934
g2017
F0.178412
sssI922711
(dp2935
I207091
g2436
ssI918006
(dp2936
I926742
(dp2937
g2017
F0.352526
ssI914815
(dp2938
g2017
F0.194135
sssI293391
(dp2939
I939541
(dp2940
g2017
F0.265421
ssI912902
(dp2941
g2017
F0.220863
sssI387600
(dp2942
I2152
g2214
sI5031
(dp2943
g2017
F0.141412
sssI168465
(dp2944
I437752
(dp2945
g2017
F0.173294
ssI273723
(dp2946
g2017
F0.247563
ssI349115
(dp2947
g2017
F0.173294
ssI316006
(dp2948
g2017
F0.173294
sssI168466
(dp2949
I373154
g2831
sI380164
(dp2950
g2017
F0.158194
ssI316006
(dp2951
g2017
F0.156758
ssI444661
g2442
sI273723
(dp2952
g2017
F0.231838
ssI321054
(dp2953
g2017
F0.156758
sssI340500
(dp2954
I944912
(dp2955
g2017
F0.130261
ssI247386
(dp2956
g2017
F0.028174
ssI217196
g2230
sI943158
(dp2957
g2017
F0.145285
ssI248254
g2800
ssI258583
(dp2958
I45647
(dp2959
g2017
F0.233655
sssI45594
(dp2960
I4752
(dp2961
g2017
F0.222385
ssI4735
g2695
sI470110
(dp2962
g2017
F0.69644
ssI343
g2679
ssI395804
(dp2963
I292816
(dp2964
g2017
F0.16099
ssI290531
(dp2965
g2017
F0.434331
ssI393574
g2691
sI394480
(dp2966
g2017
F0.240412
ssI397073
(dp2967
g2017
F0.118524
ssI289443
(dp2968
g2017
F0.140019
ssI396180
(dp2969
g2017
F0.123623
ssI2069
g2267
sI290775
(dp2970
g2017
F0.283288
ssI278004
(dp2971
g2017
F0.125461
ssI950491
g2412
sI911036
(dp2972
g2017
F0.148448
ssI228158
(dp2973
g2017
F0.331386
ssI403381
(dp2974
g2017
F0.165724
sssI338462
(dp2975
I937723
(dp2976
g2017
F0.130356
sssI465439
(dp2977
I448
g2816
sI61386
(dp2978
g2017
F0.031479
ssI809763
(dp2979
g2017
F0.597483
ssI152782
(dp2980
g2017
F0.347746
sssI25120
(dp2981
I224838
(dp2982
g2017
F0.217635
sssI41507
(dp2983
I50072
(dp2984
g2017
F0.3
ssI863765
(dp2985
g2017
F0.716767
ssI61510
g2158
ssI631919
(dp2986
I6985
(dp2987
g2017
F0.443824
ssI49
g2130
sI5031
(dp2988
g2017
F0.181216
sssI25134
(dp2989
I210884
(dp2990
g2017
F0.151871
ssI263185
(dp2991
g2017
F0.171597
ssI224874
(dp2992
g2017
F0.162425
ssI202769
g2055
sI221106
(dp2993
g2017
F0.156265
ssI246100
g2669
sI339764
(dp2994
g2017
F0.124353
ssI202748
(dp2995
g2017
F0.159165
ssI218654
(dp2996
g2017
F0.160105
ssI206591
(dp2997
g2017
F0.155151
sssI238130
(dp2998
I230891
(dp2999
g2017
F0.324421
ssI246500
(dp3000
g2017
F0.132284
ssI913822
g2748
ssI211510
(dp3001
I291417
(dp3002
g2017
F0.0294
ssI207091
g2435
ssI330295
(dp3003
I291417
(dp3004
g2017
F0.02058
ssI247386
(dp3005
g2017
F0.028174
ssI83
g2194
ssI309820
(dp3006
I504618
(dp3007
g2017
F0.9
sssI221761
(dp3008
I291417
(dp3009
g2017
F0.0294
ssI165428
(dp3010
g2017
F0.195343
ssI165609
(dp3011
g2017
F0.214818
sssI455237
(dp3012
I362125
(dp3013
g2017
F0.722467
sssI25195
(dp3014
I215371
g2535
sI226215
(dp3015
g2017
F0.215711
sssI203337
(dp3016
I925120
(dp3017
g2017
F0.174314
ssI171811
(dp3018
g2017
F0.448463
ssI240585
(dp3019
g2017
F0.182507
ssI905298
g2190
sI905878
(dp3020
g2017
F0.510555
ssI202654
(dp3021
g2017
F0.142783
sssI569930
(dp3022
I158450
(dp3023
g2017
F0.036646
sssI8780
(dp3024
I6985
(dp3025
g2017
F0.48031
sssI508494
(dp3026
I462493
(dp3027
g2017
F0.642193
ssI377742
(dp3028
g2017
F0.044154
sssI45647
(dp3029
I491354
(dp3030
g2017
F0.69644
ssI29559
(dp3031
g2017
F0.150132
ssI246500
(dp3032
g2017
F0.104345
ssI258583
g2959
ssI25168
(dp3033
I230946
(dp3034
g2017
F0.183694
ssI220867
(dp3035
g2017
F0.185755
ssI208325
(dp3036
g2017
F0.185755
ssI245831
g2160
sI222792
(dp3037
g2017
F0.188446
ssI204764
(dp3038
g2017
F0.183694
ssI215371
g2532
sI212052
(dp3039
g2017
F0.188446
ssI226684
(dp3040
g2017
F0.178374
ssI249669
(dp3041
g2017
F0.188446
sssI929185
(dp3042
I919759
g2397
ssI6738
(dp3043
I603109
(dp3044
g2017
F0.360057
ssI519247
g2846
sI511731
g2774
sI463293
g2791
sI474685
(dp3045
g2017
F0.298593
ssI365310
(dp3046
g2017
F0.275257
sssI599
(dp3047
I468017
(dp3048
g2017
F0.328183
ssI468819
(dp3049
g2017
F0.351737
ssI46315
(dp3050
g2017
F0.315142
ssI50547
(dp3051
g2017
F0.2857
sssI25176
(dp3052
I220867
(dp3053
g2017
F0.202455
ssI212004
(dp3054
g2017
F0.191634
ssI262897
(dp3055
g2017
F0.205389
ssI207955
(dp3056
g2017
F0.196869
ssI214806
(dp3057
g2017
F0.202455
ssI247931
g2262
ssI25177
(dp3058
I215371
g2533
sI254206
g2466
sI245831
g2161
ssI291418
(dp3059
I337824
(dp3060
g2017
F0.026538
ssI941473
g2826
sI224874
(dp3061
g2017
F0.037911
ssI316006
(dp3062
g2017
F0.026538
ssI908104
(dp3063
g2017
F0.037911
ssI940218
(dp3064
g2017
F0.037911
ssI514285
g2420
sI229840
g2837
sI554837
(dp3065
g2017
F0.03585
ssI255734
(dp3066
g2017
F0.037911
ssI220887
(dp3067
g2017
F0.037911
ssI948570
g2074
sI252605
(dp3068
g2017
F0.037911
ssI248254
g2804
sI711861
(dp3069
g2017
F0.03585
sssI244315
(dp3070
I946360
g2348
sI250830
(dp3071
g2017
F0.186484
sssI4700
(dp3072
I37490
(dp3073
g2017
F0.496254
ssI467787
(dp3074
g2017
F0.570046
sssI215647
(dp3075
I150720
(dp3076
g2017
F0.162828
ssI164226
g2493
sI127746
(dp3077
g2017
F0.180047
ssI174128
g2125
sI172345
(dp3078
g2017
F0.285216
ssI291417
(dp3079
g2017
F0.0294
sssI568080
(dp3080
I8155
(dp3081
g2017
F0.39723
ssI2063
g2044
ssI262754
(dp3082
I230891
(dp3083
g2017
F0.553608
sssI316006
(dp3084
I168465
g2948
sI168466
g2951
sI164666
(dp3085
g2017
F0.135797
ssI291418
g3062
ssI4713
(dp3086
I42260
(dp3087
g2017
F0.262708
ssI377043
g2402
sI45844
(dp3088
g2017
F0.271697
ssI370635
(dp3089
g2017
F0.197257
sssI4715
(dp3090
I297200
g2422
sI473048
(dp3091
g2017
F0.3598
ssI48631
(dp3092
g2017
F0.341882
sssI37486
(dp3093
I37489
(dp3094
g2017
F0.203283
ssI291417
(dp3095
g2017
F0.035373
ssI37490
(dp3096
g2017
F0.197318
ssI702260
(dp3097
g2017
F0.412882
ssI249
g2450
ssI211389
(dp3098
I915940
(dp3099
g2017
F0.200133
ssI911844
g2853
sI220329
(dp3100
g2017
F0.10427
ssI285673
(dp3101
g2017
F0.537575
sssI520816
(dp3102
I32812
g2110
ssI940136
(dp3103
I248819
(dp3104
g2017
F0.155836
ssI339751
(dp3105
g2017
F0.220298
sssI37490
(dp3106
I593193
(dp3107
g2017
F0.298905
ssI4700
g3073
sI277
g2523
sI37486
g3096
sI238703
(dp3108
g2017
F0.240149
sssI911987
(dp3109
I917066
(dp3110
g2017
F0.399007
ssI220867
(dp3111
g2017
F0.965936
ssI916940
(dp3112
g2017
F0.212601
ssI368458
(dp3113
g2017
F0.965936
sssI911989
(dp3114
I908992
(dp3115
g2017
F0.2765
ssI207169
g2620
sI908733
(dp3116
g2017
F0.242755
ssI954841
g2844
ssI4728
(dp3117
I341057
(dp3118
g2017
F0.16284
ssI464707
(dp3119
g2017
F0.203327
ssI825258
(dp3120
g2017
F0.233561
ssI210575
(dp3121
g2017
F0.232629
ssI498425
(dp3122
g2017
F0.213112
ssI488287
(dp3123
g2017
F0.203327
sssI909076
(dp3124
I929308
(dp3125
g2017
F0.146892
sssI4730
(dp3126
I465700
(dp3127
g2017
F0.276723
ssI355630
(dp3128
g2017
F0.201344
ssI341655
(dp3129
g2017
F0.212713
sssI354751
(dp3130
I249
g2459
sI912348
(dp3131
g2017
F0.933033
sssI6781
(dp3132
I23531
(dp3133
g2017
F0.51856
sssI932479
(dp3134
I61386
(dp3135
g2017
F0.030138
sssI916096
(dp3136
I926912
g2856
sI929084
(dp3137
g2017
F0.159377
sssI164482
(dp3138
I437567
(dp3139
g2017
F0.187958
sssI717443
(dp3140
I6547
g2737
ssI27275
(dp3141
I36568
(dp3142
g2017
F0.21085
ssI466450
(dp3143
g2017
F0.606287
sssI475788
(dp3144
I603130
(dp3145
g2017
F0.294555
ssI219087
(dp3146
g2017
F0.035357
ssI231919
g2882
ssI252557
(dp3147
I444480
g2155
sI25442
(dp3148
g2017
F0.190905
ssI941957
(dp3149
g2017
F0.123166
ssI271213
(dp3150
g2017
F0.586221
ssI944912
(dp3151
g2017
F0.119668
ssI927249
(dp3152
g2017
F0.298136
ssI948570
g2075
ssI920206
(dp3153
I229032
(dp3154
g2017
F0.100789
sssI291472
(dp3155
I217512
(dp3156
g2017
F0.294215
ssI238877
(dp3157
g2017
F0.294215
sssI904984
(dp3158
I942242
g2313
sI248634
(dp3159
g2017
F0.122458
ssI938442
g2828
sI217198
g2234
ssI4756
(dp3160
I214628
(dp3161
g2017
F0.257121
ssI29446
(dp3162
g2017
F0.24413
ssI458155
(dp3163
g2017
F0.227782
ssI470062
(dp3164
g2017
F0.231973
ssI343607
(dp3165
g2017
F0.179985
ssI465944
g2283
sI460090
(dp3166
g2017
F0.254232
ssI358779
g2721
ssI905878
(dp3167
I206241
(dp3168
g2017
F0.089929
ssI907429
g2317
sI203337
g3020
sI907948
(dp3169
g2017
F0.119866
ssI908780
(dp3170
g2017
F0.115218
ssI202654
(dp3171
g2017
F0.114917
ssI206789
(dp3172
g2017
F0.354012
sssI283417
(dp3173
I937723
(dp3174
g2017
F0.115617
sssI35951
(dp3175
I148834
(dp3176
g2017
F0.273762
ssI39580
(dp3177
g2017
F0.184386
sssI39580
(dp3178
I35951
g3177
ssI227997
(dp3179
I294824
(dp3180
g2017
F0.145562
ssI926748
(dp3181
g2017
F0.111854
sssI465566
(dp3182
I575568
g2184
sI312188
(dp3183
g2017
F0.035881
ssI4981
(dp3184
g2017
F0.261916
sssI938658
(dp3185
I941473
g2824
sI939541
(dp3186
g2017
F0.224249
sssI289443
(dp3187
I395804
g2968
sI2069
g2266
ssI167366
(dp3188
I314073
(dp3189
g2017
F0.251486
ssI248451
(dp3190
g2017
F0.359266
sssI481959
(dp3191
I219087
(dp3192
g2017
F0.039647
ssI295853
(dp3193
g2017
F0.039653
ssI231919
g2878
ssI907948
(dp3194
I917256
(dp3195
g2017
F0.133957
ssI921562
(dp3196
g2017
F0.128777
ssI204286
(dp3197
g2017
F0.282018
ssI905878
g3169
ssI62125
(dp3198
I895028
g2136
ssI307886
(dp3199
I41284
g2631
sI909311
(dp3200
g2017
F0.965936
sssI879282
(dp3201
I711861
(dp3202
g2017
F0.504766
sssI212725
(dp3203
I445849
(dp3204
g2017
F0.128758
sssI471733
(dp3205
I221074
(dp3206
g2017
F0.039608
ssI260391
g2562
sI219087
(dp3207
g2017
F0.039647
sssI479926
(dp3208
I520465
g2495
sI158450
(dp3209
g2017
F0.033437
ssI657436
g2070
ssI62137
(dp3210
I216720
(dp3211
g2017
F0.315696
ssI52683
(dp3212
g2017
F0.681072
ssI850763
(dp3213
g2017
F0.681072
ssI202758
g2027
sI5031
(dp3214
g2017
F0.198606
sssI463547
(dp3215
I158450
(dp3216
g2017
F0.025833
ssI4819
(dp3217
g2017
F0.179528
ssI657436
g2071
ssI252605
(dp3218
I291418
g3068
sI937723
(dp3219
g2017
F0.113312
ssI912902
(dp3220
g2017
F0.237757
sssI912347
(dp3221
I946360
g2347
sI919041
(dp3222
g2017
F0.125901
ssI941473
g2825
ssI297668
(dp3223
I212131
(dp3224
g2017
F0.035392
ssI41284
g2626
ssI907973
(dp3225
I228976
(dp3226
g2017
F0.146656
ssI220329
(dp3227
g2017
F0.095481
ssI905276
g2149
sI919517
(dp3228
g2017
F0.117986
sssI918214
(dp3229
I929992
g2379
sI221106
(dp3230
g2017
F0.25423
ssI927501
(dp3231
g2017
F0.189212
sssI4807
(dp3232
I476158
(dp3233
g2017
F0.222058
ssI463293
g2788
sI435022
(dp3234
g2017
F0.177839
sssI714581
(dp3235
I468860
(dp3236
g2017
F0.425613
sssI4812
(dp3237
I171810
(dp3238
g2017
F0.357397
ssI43459
g2820
sI465700
(dp3239
g2017
F0.191718
ssI29677
(dp3240
g2017
F0.191718
ssI472925
(dp3241
g2017
F0.186281
ssI164754
(dp3242
g2017
F0.357397
ssI513523
(dp3243
g2017
F0.199651
ssI45844
(dp3244
g2017
F0.186281
ssI173143
(dp3245
g2017
F0.430263
ssI465944
g2285
sI64857
(dp3246
g2017
F0.199651
ssI455165
g2909
ssI218914
(dp3247
I930049
g2470
sI61386
(dp3248
g2017
F0.030138
ssI247386
(dp3249
g2017
F0.036274
sssI248526
(dp3250
I248254
g2801
ssI4819
(dp3251
I466199
(dp3252
g2017
F0.189861
ssI567201
(dp3253
g2017
F0.203488
ssI239362
(dp3254
g2017
F0.215449
ssI358181
(dp3255
g2017
F0.150814
ssI576567
(dp3256
g2017
F0.218093
ssI30924
g2391
sI368687
g2116
sI575473
(dp3257
g2017
F0.203488
ssI50547
(dp3258
g2017
F0.195402
ssI515877
(dp3259
g2017
F0.203488
ssI41910
(dp3260
g2017
F0.203488
ssI29559
(dp3261
g2017
F0.166354
ssI29434
(dp3262
g2017
F0.195402
ssI463547
g3217
sI463293
g2792
sI216005
(dp3263
g2017
F0.215449
sssI928472
(dp3264
I925120
(dp3265
g2017
F0.093721
ssI928645
(dp3266
g2017
F0.496008
ssI439241
(dp3267
g2017
F0.222552
ssI204658
(dp3268
g2017
F0.41374
ssI223216
(dp3269
g2017
F0.25223
ssI222545
(dp3270
g2017
F0.3712
ssI905298
g2188
sI927380
(dp3271
g2017
F0.194256
ssI291417
(dp3272
g2017
F0.0294
ssI236411
(dp3273
g2017
F0.186632
ssI218654
(dp3274
g2017
F0.092063
sssI314073
(dp3275
I1781
(dp3276
g2017
F0.218397
ssI167366
g3189
sI14039
g2490
ssI219867
(dp3277
I167128
(dp3278
g2017
F0.261583
ssI291417
(dp3279
g2017
F0.0294
ssI153037
(dp3280
g2017
F0.332871
ssI454630
(dp3281
g2017
F0.310822
sssI321054
(dp3282
I168466
g2953
ssI916189
(dp3283
I216585
(dp3284
g2017
F0.774802
ssI911844
g2854
ssI291551
(dp3285
I376418
(dp3286
g2017
F0.248981
ssI332168
g2579
sI376430
(dp3287
g2017
F0.246218
ssI376436
(dp3288
g2017
F0.246218
ssI248727
(dp3289
g2017
F0.35174
ssI376414
(dp3290
g2017
F0.248981
sssI246500
(dp3291
I238130
g3000
sI45647
g3032
ssI916201
(dp3292
I224838
(dp3293
g2017
F0.301774
sssI226029
(dp3294
I228976
(dp3295
g2017
F0.332113
ssI207169
g2617
sI914587
(dp3296
g2017
F0.416705
ssI917419
(dp3297
g2017
F0.130235
sssI826094
(dp3298
I60237
(dp3299
g2017
F0.270463
sssI262897
(dp3300
I25176
g3055
sI165427
(dp3301
g2017
F0.222647
sssI158450
(dp3302
I35329
g2919
sI570250
(dp3303
g2017
F0.042095
ssI466450
(dp3304
g2017
F0.032331
ssI466199
(dp3305
g2017
F0.032571
ssI569624
g2529
sI462493
(dp3306
g2017
F0.032571
ssI472223
(dp3307
g2017
F0.034192
ssI51233
g2087
sI465700
(dp3308
g2017
F0.03051
ssI475567
g2769
sI41910
(dp3309
g2017
F0.03006
ssI463547
g3216
sI33980
(dp3310
g2017
F0.0295
ssI463293
g2789
sI465087
(dp3311
g2017
F0.03051
ssI479926
g3209
sI575687
g2376
sI569930
g3023
sI33740
(dp3312
g2017
F0.03312
ssI525135
(dp3313
g2017
F0.036646
ssI27090
g2841
sI570711
(dp3314
g2017
F0.042095
ssI64857
(dp3315
g2017
F0.03312
ssI41946
(dp3316
g2017
F0.027564
ssI41915
(dp3317
g2017
F0.033791
ssI30181
(dp3318
g2017
F0.028047
ssI573394
(dp3319
g2017
F0.039276
ssI513523
(dp3320
g2017
F0.034192
ssI52214
(dp3321
g2017
F0.034192
ssI28863
g2366
sI476158
(dp3322
g2017
F0.032571
sssI236276
(dp3323
I908780
(dp3324
g2017
F0.351716
sssI518901
(dp3325
I61386
(dp3326
g2017
F0.031479
ssI1211
(dp3327
g2017
F0.212667
sssI127734
(dp3328
I222792
(dp3329
g2017
F0.39146
ssI455165
g2911
sI177975
(dp3330
g2017
F0.401588
sssI498425
(dp3331
I4728
g3122
sI377741
g2323
ssI29434
(dp3332
I586048
g2614
sI4819
g3262
sI29446
(dp3333
g2017
F0.172508
sssI918267
(dp3334
I230891
(dp3335
g2017
F0.19356
ssI248398
(dp3336
g2017
F0.158758
ssI913822
g2747
sI926742
(dp3337
g2017
F0.092501
ssI912380
(dp3338
g2017
F0.152473
ssI929086
(dp3339
g2017
F0.237528
sssI365310
(dp3340
I6738
g3046
ssI127746
(dp3341
I215647
g3077
ssI226051
(dp3342
I248254
g2795
ssI508677
(dp3343
I217202
g2250
sI353940
(dp3344
g2017
F0.044154
sssI29446
(dp3345
I688755
(dp3346
g2017
F0.27915
ssI103251
(dp3347
g2017
F0.178361
ssI4756
g3162
sI68789
(dp3348
g2017
F0.259778
ssI975991
(dp3349
g2017
F1.0
ssI291417
(dp3350
g2017
F0.035373
ssI29434
g3333
ssI506632
(dp3351
I232561
(dp3352
g2017
F0.043691
ssI377742
(dp3353
g2017
F0.043691
sssI441097
(dp3354
I50072
(dp3355
g2017
F0.806363
ssI3833
(dp3356
g2017
F0.242668
sssI406282
(dp3357
I914681
(dp3358
g2017
F0.142754
sssI406283
(dp3359
I914681
(dp3360
g2017
F0.13149
sssI97037
(dp3361
I34279
(dp3362
g2017
F0.342586
sssI809742
(dp3363
I877061
g2924
sI471334
g2551
sI541613
(dp3364
g2017
F0.523025
ssI470062
(dp3365
g2017
F0.411574
ssI486737
(dp3366
g2017
F0.575378
ssI468503
(dp3367
g2017
F0.383301
ssI468538
(dp3368
g2017
F0.419474
ssI478917
(dp3369
g2017
F0.678456
sssI209679
(dp3370
I202748
(dp3371
g2017
F0.646897
ssI23531
(dp3372
g2017
F0.597756
ssI214628
(dp3373
g2017
F0.713001
ssI4903
(dp3374
g2017
F0.249362
sssI944912
(dp3375
I340500
g2955
sI252557
g3151
ssI45844
(dp3376
I4713
g3088
sI470026
(dp3377
g2017
F0.716767
ssI4812
g3244
sI536431
(dp3378
g2017
F0.337005
ssI247386
(dp3379
g2017
F0.039581
ssI13119
(dp3380
g2017
F0.292855
sssI465685
(dp3381
I360634
g2355
sI657436
g2069
sI221074
(dp3382
g2017
F0.035661
sssI537366
(dp3383
I229840
g2838
sI4203
g2222
sI4903
(dp3384
g2017
F0.186981
sssI906008
(dp3385
I240585
(dp3386
g2017
F0.154186
ssI202654
(dp3387
g2017
F0.106017
sssI215833
(dp3388
I264346
g2301
sI206548
(dp3389
g2017
F0.167657
ssI264530
(dp3390
g2017
F0.083181
sssI463645
(dp3391
I61386
(dp3392
g2017
F0.031479
ssI2063
g2047
sI260391
g2565
ssI910111
(dp3393
I206241
(dp3394
g2017
F0.165113
sssI809763
(dp3395
I468900
(dp3396
g2017
F0.38416
ssI565957
g2311
sI465439
g2979
ssI465700
(dp3397
I35329
g2920
sI217350
g2479
sI260391
g2555
sI4812
g3239
sI286893
g2337
sI158450
g3308
sI4730
g3127
sI221074
(dp3398
g2017
F0.034874
sssI4903
(dp3399
I40896
(dp3400
g2017
F0.211936
ssI209679
g3374
sI475413
(dp3401
g2017
F0.186981
ssI537366
g3384
sI368687
g2118
ssI4904
(dp3402
I335985
g2245
sI569557
g2406
ssI504618
(dp3403
I212131
(dp3404
g2017
F0.044676
ssI854119
g2210
sI465709
g2090
sI514285
g2418
sI232561
(dp3405
g2017
F0.044677
ssI309820
g3007
ssI846635
(dp3406
I509965
g2180
ssI291629
(dp3407
I174128
g2121
sI172345
(dp3408
g2017
F0.199651
ssI289411
(dp3409
g2017
F0.671683
ssI292877
(dp3410
g2017
F0.426587
sssI916270
(dp3411
I912348
(dp3412
g2017
F0.309877
sssI127791
(dp3413
I52984
(dp3414
g2017
F0.076278
ssI29506
(dp3415
g2017
F0.051187
ssI526186
(dp3416
g2017
F0.073754
ssI29994
(dp3417
g2017
F0.060966
sssI127792
(dp3418
I208771
(dp3419
g2017
F0.060774
ssI202769
g2053
sI212121
(dp3420
g2017
F0.062917
ssI238877
(dp3421
g2017
F0.063828
ssI217512
(dp3422
g2017
F0.062917
ssI568115
(dp3423
g2017
F0.049082
ssI234805
(dp3424
g2017
F0.063828
ssI241849
g2351
sI230595
(dp3425
g2017
F0.059316
ssI41284
g2632
sI216005
(dp3426
g2017
F0.061181
ssI240585
(dp3427
g2017
F0.061181
ssI615503
(dp3428
g2017
F0.061143
ssI575568
g2183
sI323926
g2671
sI228688
(dp3429
g2017
F0.061654
ssI62442
(dp3430
g2017
F0.045795
ssI46318
(dp3431
g2017
F0.043662
ssI223216
(dp3432
g2017
F0.060774
ssI513523
(dp3433
g2017
F0.049663
ssI241269
(dp3434
g2017
F0.063828
ssI48631
(dp3435
g2017
F0.04731
ssI52984
(dp3436
g2017
F0.052053
sssI568115
(dp3437
I127792
g3423
sI476584
(dp3438
g2017
F0.69644
sssI467766
(dp3439
I520465
g2499
ssI29495
(dp3440
I58
g2141
ssI702260
(dp3441
I37486
g3097
ssI248634
(dp3442
I904984
g3159
sI247386
(dp3443
g2017
F0.037136
sssI228158
(dp3444
I395804
g2973
sI165902
g2041
ssI13119
(dp3445
I45922
(dp3446
g2017
F0.283165
ssI377043
g2403
sI427309
(dp3447
g2017
F0.217758
ssI335985
g2248
sI329779
g2133
sI45844
g3380
ssI500544
(dp3448
I377742
(dp3449
g2017
F0.044154
sssI29506
(dp3450
I46021
(dp3451
g2017
F0.48536
ssI127791
g3415
ssI908104
(dp3452
I291418
g3063
sI937723
(dp3453
g2017
F0.131449
sssI6985
(dp3454
I171810
(dp3455
g2017
F0.9
ssI631919
g2987
sI8780
g3025
sI434615
g2781
ssI654155
(dp3456
I32812
g2111
ssI60237
(dp3457
I826353
(dp3458
g2017
F0.261221
ssI60283
(dp3459
g2017
F0.258621
ssI60300
(dp3460
g2017
F0.28627
ssI868596
(dp3461
g2017
F0.255062
ssI826094
g3299
ssI435022
(dp3462
I4807
g3234
ssI459599
(dp3463
I62442
(dp3464
g2017
F0.377891
sssI809808
(dp3465
I458651
(dp3466
g2017
F0.8
ssI880725
g2196
sI462847
(dp3467
g2017
F0.422086
sssI262993
(dp3468
I202826
g2713
ssI103251
(dp3469
I458155
(dp3470
g2017
F0.206632
ssI29446
g3347
ssI809812
(dp3471
I465944
g2282
sI472223
(dp3472
g2017
F0.423899
sssI429388
(dp3473
I18763
g2648
sI2445
g2732
ssI915940
(dp3474
I906504
(dp3475
g2017
F0.090698
ssI919517
(dp3476
g2017
F0.104314
ssI211389
g3099
sI910725
(dp3477
g2017
F0.421977
sssI164666
(dp3478
I437752
(dp3479
g2017
F0.13704
ssI240585
(dp3480
g2017
F0.191225
ssI210884
(dp3481
g2017
F0.197968
ssI316006
g3085
sI220431
(dp3482
g2017
F0.189103
sssI351070
(dp3483
I923070
(dp3484
g2017
F0.248383
ssI248254
g2806
sI5031
(dp3485
g2017
F0.146398
sssI166751
(dp3486
I314336
(dp3487
g2017
F0.294772
ssI5676
(dp3488
g2017
F0.412318
sssI246928
(dp3489
I907188
(dp3490
g2017
F0.096662
sssI25442
(dp3491
I216585
(dp3492
g2017
F0.184402
ssI202826
g2711
sI437567
(dp3493
g2017
F0.133634
ssI252557
g3148
sI226215
(dp3494
g2017
F0.173206
sssI895843
(dp3495
I575473
(dp3496
g2017
F0.681072
sssI4964
(dp3497
I62442
(dp3498
g2017
F0.391914
ssI842589
(dp3499
g2017
F0.488219
sssI4965
(dp3500
I337824
(dp3501
g2017
F0.23103
ssI368497
(dp3502
g2017
F0.220684
ssI468900
(dp3503
g2017
F0.251529
ssI43460
g2822
sI569557
g2407
ssI506727
(dp3504
I353940
(dp3505
g2017
F0.043691
ssI513523
(dp3506
g2017
F0.69644
ssI41284
g2628
sI377741
g2321
ssI289643
(dp3507
I294682
(dp3508
g2017
F0.129023
ssI228159
(dp3509
g2017
F0.112219
sssI271213
(dp3510
I252557
g3150
ssI920430
(dp3511
I929536
(dp3512
g2017
F0.307631
ssI916609
(dp3513
g2017
F0.105275
ssI916642
(dp3514
g2017
F0.101953
ssI203079
g2639
sI927760
g2051
sI227506
g2344
ssI248398
(dp3515
I918267
g3336
sI929308
(dp3516
g2017
F0.167972
sssI240787
(dp3517
I266002
(dp3518
g2017
F0.111121
sssI4981
(dp3519
I215371
g2536
sI465566
g3184
ssI29559
(dp3520
I264530
(dp3521
g2017
F0.050968
ssI4819
g3261
sI45647
g3031
ssI928575
(dp3522
I228971
(dp3523
g2017
F0.354027
sssI205692
(dp3524
I291569
g2760
ssI367486
(dp3525
I6345
g2382
sI8155
(dp3526
g2017
F0.271981
sssI940929
(dp3527
I940218
(dp3528
g2017
F0.25139
ssI340982
(dp3529
g2017
F0.548476
ssI217198
g2235
ssI385515
(dp3530
I25098
g2931
sI32812
g2112
ssI482180
(dp3531
I221074
(dp3532
g2017
F0.039083
ssI217350
g2484
ssI928645
(dp3533
I928472
g3266
sI236411
(dp3534
g2017
F0.185127
ssI919517
(dp3535
g2017
F0.264442
sssI937447
(dp3536
I924796
(dp3537
g2017
F0.124371
sssI570250
(dp3538
I158450
g3303
sI826413
(dp3539
g2017
F0.416175
ssI52214
(dp3540
g2017
F0.606287
sssI60300
(dp3541
I826353
(dp3542
g2017
F0.383301
ssI60237
g3460
ssI248717
(dp3543
I924736
(dp3544
g2017
F0.54324
ssI204804
g2025
sI207091
g2434
sI228971
(dp3545
g2017
F0.229866
ssI207955
(dp3546
g2017
F0.094366
ssI228729
(dp3547
g2017
F0.094042
ssI924826
(dp3548
g2017
F0.427364
sssI377742
(dp3549
I500544
g3449
sI503396
(dp3550
g2017
F0.042245
ssI506632
g3353
sI505802
(dp3551
g2017
F0.043691
ssI508494
g3028
sI507541
(dp3552
g2017
F0.044154
sssI345581
(dp3553
I247386
(dp3554
g2017
F0.028174
ssI277
g2522
ssI164754
(dp3555
I4812
g3242
sI164767
(dp3556
g2017
F0.532938
sssI174995
(dp3557
I204559
(dp3558
g2017
F0.4
ssI319105
(dp3559
g2017
F0.28
ssI434436
g2475
sI389064
(dp3560
g2017
F0.289874
ssI213007
g2200
sI364529
(dp3561
g2017
F0.28
ssI368687
g2117
sI319101
(dp3562
g2017
F0.28
sssI396180
(dp3563
I395804
g2969
sI290775
(dp3564
g2017
F0.214384
sssI248727
(dp3565
I4752
(dp3566
g2017
F0.290482
ssI247386
(dp3567
g2017
F0.035871
ssI248451
(dp3568
g2017
F0.20475
ssI4203
g2223
sI291551
g3289
ssI50072
(dp3569
I441097
g3355
sI41507
g2984
sI42260
(dp3570
g2017
F0.250788
sssI351134
(dp3571
I937723
(dp3572
g2017
F0.137882
ssI923070
(dp3573
g2017
F0.284048
ssI339751
(dp3574
g2017
F0.129273
sssI164767
(dp3575
I164754
g3556
ssI211099
(dp3576
I266002
(dp3577
g2017
F0.11504
sssI328461
(dp3578
I308
g2588
ssI226215
(dp3579
I25442
g3494
sI25195
g3015
sI174999
(dp3580
g2017
F0.49984
sssI211882
(dp3581
I238904
(dp3582
g2017
F0.278888
ssI918739
(dp3583
g2017
F0.335921
ssI210575
(dp3584
g2017
F0.432515
ssI208303
(dp3585
g2017
F0.270852
sssI229032
(dp3586
I924826
(dp3587
g2017
F0.092588
ssI920206
g3154
ssI541613
(dp3588
I604411
g2461
sI809742
g3364
ssI242504
(dp3589
I21710
(dp3590
g2017
F0.811125
sssI209842
(dp3591
I167117
(dp3592
g2017
F0.269207
sssI62387
(dp3593
I525135
(dp3594
g2017
F0.371598
sssI41908
(dp3595
I431361
(dp3596
g2017
F0.783495
ssI41910
(dp3597
g2017
F0.22883
sssI677756
(dp3598
I458032
(dp3599
g2017
F0.361193
sssI41910
(dp3600
I531660
(dp3601
g2017
F0.302968
ssI158450
g3309
sI4819
g3260
sI41908
g3597
sI157719
g2064
ssI349115
(dp3602
I168465
g2947
sI464683
(dp3603
g2017
F0.660694
sssI564826
(dp3604
I321323
(dp3605
g2017
F0.075077
ssI58
g2143
sI83
g2193
ssI519101
(dp3606
I321323
(dp3607
g2017
F0.074081
sssI263328
(dp3608
I52683
(dp3609
g2017
F0.0858
ssI210902
(dp3610
g2017
F0.087696
sssI850763
(dp3611
I62137
g3213
ssI216005
(dp3612
I127792
g3426
sI4819
g3263
ssI33735
(dp3613
I90364
g2464
sI836678
(dp3614
g2017
F0.681072
sssI240585
(dp3615
I911844
g2852
sI915752
g2568
sI203337
g3019
sI127792
g3427
sI906008
g3386
sI164666
g3480
sI202654
(dp3616
g2017
F0.308146
sssI459255
(dp3617
I249
g2456
sI163083
(dp3618
g2017
F0.239471
sssI33740
(dp3619
I52984
(dp3620
g2017
F0.261165
ssI158450
g3312
sI308
g2587
ssI717773
(dp3621
I45922
(dp3622
g2017
F0.290597
sssI250830
(dp3623
I217196
g2231
sI939765
(dp3624
g2017
F0.186487
ssI569624
g2530
sI247386
(dp3625
g2017
F0.040248
ssI244315
g3071
sI248254
g2797
ssI437752
(dp3626
I2152
g2215
sI168465
g2945
sI164666
g3479
sI2445
g2730
ssI238546
(dp3627
I291417
(dp3628
g2017
F0.0294
ssI241269
(dp3629
g2017
F0.122565
sssI351190
(dp3630
I18763
g2651
ssI400203
(dp3631
I164287
g2809
ssI41946
(dp3632
I291417
(dp3633
g2017
F0.035373
ssI158450
g3316
sI277
g2517
ssI525135
(dp3634
I473048
(dp3635
g2017
F0.606287
ssI158450
g3313
sI62387
g3594
ssI912348
(dp3636
I225238
(dp3637
g2017
F0.244338
ssI910947
(dp3638
g2017
F0.558613
ssI208325
(dp3639
g2017
F0.24822
ssI916270
g3412
sI354751
g3131
ssI349151
(dp3640
I247386
(dp3641
g2017
F0.027214
ssI464683
(dp3642
g2017
F0.660694
ssI380571
(dp3643
g2017
F0.189515
sssI314336
(dp3644
I343
g2674
sI166751
g3487
ssI29667
(dp3645
I249
g2446
sI277
g2519
ssI603109
(dp3646
I6738
g3044
ssI916454
(dp3647
I925954
g2473
sI910532
(dp3648
g2017
F0.442127
ssI916940
(dp3649
g2017
F0.151185
ssI907597
g2656
sI925139
(dp3650
g2017
F0.123215
ssI927728
g2270
sI911537
g2339
sI911731
g2709
sI909230
(dp3651
g2017
F0.397121
ssI927733
(dp3652
g2017
F0.422498
sssI453607
(dp3653
I291417
(dp3654
g2017
F0.02058
ssI18763
g2647
sI5031
(dp3655
g2017
F0.141412
sssI285673
(dp3656
I211389
g3101
ssI62442
(dp3657
I508290
g2724
sI4964
g3498
sI459599
g3464
sI127792
g3430
sI6262
g2253
sI247386
(dp3658
g2017
F0.037321
sssI23531
(dp3659
I6781
g3133
sI209679
g3372
ssI29677
(dp3660
I6520
g2718
sI4812
g3240
ssI465405
(dp3661
I567201
(dp3662
g2017
F0.716767
ssI312188
(dp3663
g2017
F0.036503
sssI826353
(dp3664
I575473
(dp3665
g2017
F0.678456
ssI60300
g3542
sI60237
g3458
ssI467955
(dp3666
I1211
(dp3667
g2017
F0.217466
ssI295853
(dp3668
g2017
F0.039127
ssI5031
(dp3669
g2017
F0.198606
sssI204286
(dp3670
I238904
(dp3671
g2017
F0.096295
ssI907948
g3197
sI204804
g2021
sI920184
(dp3672
g2017
F0.180058
sssI168950
(dp3673
I285993
(dp3674
g2017
F0.380764
ssI368458
(dp3675
g2017
F0.275934
ssI450422
(dp3676
g2017
F0.275934
sssI910329
(dp3677
I908780
(dp3678
g2017
F0.188074
ssI219138
(dp3679
g2017
F0.118028
ssI916876
(dp3680
g2017
F0.097235
ssI210902
(dp3681
g2017
F0.446515
ssI208303
(dp3682
g2017
F0.105703
sssI603130
(dp3683
I475788
g3145
sI483318
(dp3684
g2017
F0.304086
sssI912380
(dp3685
I909680
g2706
sI319728
(dp3686
g2017
F0.90125
ssI918267
g3338
sI225238
(dp3687
g2017
F0.10592
sssI379901
(dp3688
I291417
(dp3689
g2017
F0.02058
sssI784
(dp3690
I214403
(dp3691
g2017
F0.756807
sssI468821
(dp3692
I217350
g2482
ssI289794
(dp3693
I290367
(dp3694
g2017
F0.122424
ssI292877
(dp3695
g2017
F0.107696
ssI228159
(dp3696
g2017
F0.173782
sssI257027
(dp3697
I930049
g2471
sI929086
(dp3698
g2017
F0.543925
sssI412678
(dp3699
I167128
(dp3700
g2017
F0.183108
ssI458651
(dp3701
g2017
F0.83973
sssI857601
(dp3702
I506495
g2357
ssI470026
(dp3703
I7459
(dp3704
g2017
F0.4866
ssI221074
(dp3705
g2017
F0.037858
ssI220867
(dp3706
g2017
F0.83973
ssI45844
g3377
sI32731
(dp3707
g2017
F0.69644
sssI914444
(dp3708
I929453
(dp3709
g2017
F0.555552
sssI908301
(dp3710
I925120
(dp3711
g2017
F0.094385
ssI228729
(dp3712
g2017
F0.123527
ssI920184
(dp3713
g2017
F0.350059
ssI222545
(dp3714
g2017
F0.107496
sssI240602
(dp3715
I905296
(dp3716
g2017
F0.237569
ssI906836
(dp3717
g2017
F0.223192
sssI263185
(dp3718
I221478
(dp3719
g2017
F0.1877
ssI25134
g2991
sI220887
(dp3720
g2017
F0.33805
sssI924690
(dp3721
I220329
(dp3722
g2017
F0.109286
ssI203170
g2753
sI917419
(dp3723
g2017
F0.295837
ssI454231
(dp3724
g2017
F0.103933
sssI5139
(dp3725
I509973
g2058
ssI914538
(dp3726
I908780
(dp3727
g2017
F0.271555
sssI926742
(dp3728
I368497
(dp3729
g2017
F0.914308
ssI918267
g3337
sI228820
(dp3730
g2017
F0.187332
ssI918006
g2937
sI914815
(dp3731
g2017
F0.201009
sssI547863
(dp3732
I285992
(dp3733
g2017
F0.493903
ssI285993
(dp3734
g2017
F0.9
ssI32731
(dp3735
g2017
F0.69644
sssI416792
(dp3736
I5624
(dp3737
g2017
F0.177293
ssI7253
(dp3738
g2017
F0.161315
sssI826396
(dp3739
I491354
(dp3740
g2017
F0.469332
ssI659205
(dp3741
g2017
F0.469332
sssI25093
(dp3742
I228688
(dp3743
g2017
F0.244758
ssI346425
(dp3744
g2017
F0.193997
sssI212004
(dp3745
I25176
g3054
sI904957
(dp3746
g2017
F0.247094
sssI236581
(dp3747
I226684
(dp3748
g2017
F0.095709
ssI236869
(dp3749
g2017
F0.099084
sssI480295
(dp3750
I372099
(dp3751
g2017
F0.039668
sssI826413
(dp3752
I570250
g3539
ssI470062
(dp3753
I312188
(dp3754
g2017
F0.035524
ssI221074
(dp3755
g2017
F0.035487
ssI4756
g3164
sI809742
g3365
sI260391
g2558
ssI842589
(dp3756
I249
g2458
sI4964
g3499
ssI468017
(dp3757
I372099
(dp3758
g2017
F0.037915
ssI61386
(dp3759
g2017
F0.031479
ssI231919
g2885
sI575473
(dp3760
g2017
F0.606287
ssI599
g3048
sI312188
(dp3761
g2017
F0.037897
sssI217195
(dp3762
I217196
g2228
sI514285
g2419
sI217198
g2236
ssI943158
(dp3763
I340500
g2957
ssI576567
(dp3764
I5624
(dp3765
g2017
F0.231317
ssI4819
g3256
ssI488287
(dp3766
I4728
g3123
sI308
g2593
sI654965
(dp3767
g2017
F0.248998
sssI955452
(dp3768
I224838
(dp3769
g2017
F0.156422
sssI711861
(dp3770
I249
g2444
sI291418
g3069
sI879282
g3202
ssI924736
(dp3771
I907667
(dp3772
g2017
F0.163369
ssI248717
g3544
sI929126
(dp3773
g2017
F0.484303
sssI341057
(dp3774
I4728
g3118
sI942322
g2427
sI941404
(dp3775
g2017
F0.154967
sssI217512
(dp3776
I127792
g3422
sI291472
g3156
sI223646
g2778
ssI836678
(dp3777
I33735
g3614
ssI928839
(dp3778
I206241
(dp3779
g2017
F0.106676
sssI334922
(dp3780
I4203
g2220
sI1667
(dp3781
g2017
F0.329017
ssI163901
g2153
ssI529483
(dp3782
I289
g2541
sI321323
(dp3783
g2017
F0.076243
sssI228428
(dp3784
I165194
(dp3785
g2017
F0.41565
ssI61386
(dp3786
g2017
F0.030138
ssI930414
(dp3787
g2017
F0.464725
sssI45922
(dp3788
I717773
g3622
sI13119
g3446
ssI433230
(dp3789
I58
g2140
sI6174
g2080
ssI615503
(dp3790
I127792
g3428
ssI212050
(dp3791
I473048
(dp3792
g2017
F0.062177
ssI497090
(dp3793
g2017
F0.079026
ssI455165
g2910
sI473054
(dp3794
g2017
F0.062177
sssI207955
(dp3795
I25176
g3056
sI264346
g2299
sI248717
g3546
sI929453
(dp3796
g2017
F0.595063
sssI212052
(dp3797
I25168
g3039
sI207187
g2666
ssI7253
(dp3798
I331271
(dp3799
g2017
F0.154091
ssI466800
(dp3800
g2017
F0.222418
ssI36568
(dp3801
g2017
F0.207524
ssI416792
g3738
sI469147
g2305
sI35260
g2785
ssI173143
(dp3802
I373154
g2833
sI317419
(dp3803
g2017
F0.158271
ssI4812
g3245
sI381431
g2905
ssI928860
(dp3804
I248819
(dp3805
g2017
F0.101895
sssI940218
(dp3806
I940929
g3528
sI291418
g3064
ssI470110
(dp3807
I45594
g2962
ssI1211
(dp3808
I467955
g3667
sI458651
(dp3809
g2017
F0.233075
ssI518901
g3327
sI470934
(dp3810
g2017
F0.233075
sssI515172
(dp3811
I4387
g2545
ssI922725
(dp3812
I202748
(dp3813
g2017
F0.139459
sssI248934
(dp3814
I929536
(dp3815
g2017
F0.965936
ssI6547
g2739
sI343
g2675
ssI922727
(dp3816
I905151
(dp3817
g2017
F0.406673
sssI483408
(dp3818
I5624
(dp3819
g2017
F0.24792
ssI61386
(dp3820
g2017
F0.031479
ssI312188
(dp3821
g2017
F0.037897
ssI219087
(dp3822
g2017
F0.037895
sssI236650
(dp3823
I342651
(dp3824
g2017
F0.115116
ssI234805
(dp3825
g2017
F0.139099
sssI926748
(dp3826
I260488
g2728
sI294824
(dp3827
g2017
F0.099463
ssI914317
(dp3828
g2017
F0.265265
ssI227997
g3181
ssI238703
(dp3829
I207169
g2618
sI37490
g3108
sI230595
(dp3830
g2017
F0.304715
ssI50547
(dp3831
g2017
F0.240149
sssI232561
(dp3832
I506632
g3352
sI508290
g2723
sI504618
g3405
sI507541
(dp3833
g2017
F0.044154
sssI369780
(dp3834
I343
g2678
ssI975991
(dp3835
I29446
g3349
ssI25108
(dp3836
I219138
(dp3837
g2017
F0.214325
ssI224838
(dp3838
g2017
F0.208411
ssI209191
(dp3839
g2017
F0.221883
ssI208201
(dp3840
g2017
F0.211947
ssI202826
g2714
sI208303
(dp3841
g2017
F0.21743
ssI202654
(dp3842
g2017
F0.211947
sssI465087
(dp3843
I372099
(dp3844
g2017
F0.034926
ssI231919
g2891
sI158450
g3311
sI277
g2510
sI247386
(dp3845
g2017
F0.036115
ssI312188
(dp3846
g2017
F0.03491
sssI924796
(dp3847
I940003
(dp3848
g2017
F0.103788
ssI939142
(dp3849
g2017
F0.11204
ssI937447
g3537
sI276419
(dp3850
g2017
F0.096743
ssI248254
g2805
sI452479
(dp3851
g2017
F0.128895
sssI863765
(dp3852
I41507
g2985
ssI230744
(dp3853
I214628
(dp3854
g2017
F0.290438
ssI206789
(dp3855
g2017
F0.444294
ssI224838
(dp3856
g2017
F0.11404
ssI929453
(dp3857
g2017
F0.124694
ssI929126
(dp3858
g2017
F0.136074
ssI914587
(dp3859
g2017
F0.111056
sssI916609
(dp3860
I264346
g2291
sI907429
g2315
sI920430
g3513
sI922093
g2871
ssI939142
(dp3861
I924796
g3849
ssI242823
(dp3862
I905296
(dp3863
g2017
F0.154833
ssI291417
(dp3864
g2017
F0.0294
ssI247386
(dp3865
g2017
F0.038877
ssI924990
(dp3866
g2017
F0.135679
sssI468503
(dp3867
I49
g2127
sI809742
g3367
ssI910480
(dp3868
I207169
g2619
sI223646
g2776
ssI865427
(dp3869
I480913
(dp3870
g2017
F0.69644
ssI491354
(dp3871
g2017
F0.716767
sssI244887
(dp3872
I52984
(dp3873
g2017
F0.112173
ssI460257
(dp3874
g2017
F0.101198
sssI212121
(dp3875
I127792
g3420
sI247386
(dp3876
g2017
F0.037553
ssI291419
(dp3877
g2017
F0.223978
sssI924826
(dp3878
I229032
g3587
sI230946
(dp3879
g2017
F0.965936
ssI248717
g3548
ssI914587
(dp3880
I230744
g3859
sI226029
g3296
ssI472223
(dp3881
I312188
(dp3882
g2017
F0.039123
ssI158450
g3307
sI809812
g3472
sI371933
(dp3883
g2017
F0.83973
sssI29856
(dp3884
I448
g2812
sI291417
(dp3885
g2017
F0.035373
ssI247386
(dp3886
g2017
F0.038556
sssI916642
(dp3887
I264346
g2292
sI908780
(dp3888
g2017
F0.107879
ssI920430
g3514
ssI212131
(dp3889
I454985
g2643
sI504618
g3404
sI297668
g3224
sI506495
g2358
ssI220329
(dp3890
I907973
g3227
sI911142
(dp3891
g2017
F0.088212
ssI913287
(dp3892
g2017
F0.107345
ssI924690
g3722
sI907188
(dp3893
g2017
F0.094463
ssI291417
(dp3894
g2017
F0.0294
ssI921756
g2308
sI211389
g3100
sI907583
g2610
ssI204658
(dp3895
I929536
(dp3896
g2017
F0.416411
ssI907429
g2316
sI222545
(dp3897
g2017
F0.222484
ssI249262
(dp3898
g2017
F0.104441
ssI913329
(dp3899
g2017
F0.237589
ssI241269
(dp3900
g2017
F0.3558
ssI928472
g3268
sI919517
(dp3901
g2017
F0.359902
ssI218654
(dp3902
g2017
F0.3923
sssI263957
(dp3903
I291417
(dp3904
g2017
F0.0294
ssI2090
g2107
ssI68789
(dp3905
I29446
g3348
ssI906424
(dp3906
I926936
(dp3907
g2017
F0.133167
ssI924935
(dp3908
g2017
F0.146268
sssI33979
(dp3909
I7459
(dp3910
g2017
F0.435973
ssI33980
(dp3911
g2017
F0.227357
sssI33980
(dp3912
I34279
(dp3913
g2017
F0.218323
ssI659247
(dp3914
g2017
F0.297324
ssI158450
g3310
sI343
g2681
sI730904
(dp3915
g2017
F0.297324
ssI33979
g3911
ssI150720
(dp3916
I215647
g3076
ssI1781
(dp3917
I314073
g3276
ssI230595
(dp3918
I127792
g3425
sI291569
g2759
sI238703
g3830
ssI910532
(dp3919
I916454
g3648
ssI567158
(dp3920
I4203
g2218
ssI922823
(dp3921
I248254
g2796
ssI531660
(dp3922
I41910
g3601
ssI167117
(dp3923
I327088
(dp3924
g2017
F0.185754
ssI209842
g3592
sI319886
g2735
sI323926
g2672
ssI21710
(dp3925
I242504
g3590
sI51233
g2088
ssI165071
(dp3926
I362125
(dp3927
g2017
F0.28195
sssI918739
(dp3928
I211882
g3583
ssI152782
(dp3929
I465439
g2980
ssI926936
(dp3930
I906424
g3907
sI913714
g2581
sI928188
(dp3931
g2017
F0.184996
ssI929086
(dp3932
g2017
F0.156007
sssI371933
(dp3933
I472223
g3883
ssI81118
(dp3934
I202758
g2028
ssI462373
(dp3935
I221074
(dp3936
g2017
F0.039608
ssI312188
(dp3937
g2017
F0.039649
sssI457952
(dp3938
I221074
(dp3939
g2017
F0.03753
ssI657436
g2066
sI217350
g2477
sI219087
(dp3940
g2017
F0.037567
sssI754555
(dp3941
I30181
(dp3942
g2017
F0.399768
sssI275685
(dp3943
I249669
(dp3944
g2017
F0.299618
sssI517350
(dp3945
I277
g2521
ssI312188
(dp3946
I462373
g3937
sI465087
g3846
sI476158
(dp3947
g2017
F0.037269
ssI465709
g2091
sI470062
g3754
sI481629
g2689
sI483408
g3821
sI468017
g3761
sI466450
(dp3948
g2017
F0.036994
ssI465405
g3663
sI462486
(dp3949
g2017
F0.037568
ssI468793
(dp3950
g2017
F0.037897
ssI460090
(dp3951
g2017
F0.028704
ssI473823
g2604
sI477010
(dp3952
g2017
F0.03826
ssI455165
g2913
sI465566
g3183
sI472223
g3882
ssI46315
(dp3953
I599
g3050
sI32731
(dp3954
g2017
F0.681072
ssI157719
g2062
ssI46318
(dp3955
I127792
g3431
sI291417
(dp3956
g2017
F0.035373
ssI157719
g2063
ssI394480
(dp3957
I395804
g2966
ssI922047
(dp3958
I928650
(dp3959
g2017
F0.19688
ssI207091
g2437
ssI914681
(dp3960
I950793
g2926
sI406282
g3358
sI406283
g3360
sI397481
g2326
sI294682
(dp3961
g2017
F0.095168
ssI228159
(dp3962
g2017
F0.091927
sssI144635
(dp3963
I215486
(dp3964
g2017
F0.457761
sssI361724
(dp3965
I260391
g2564
ssI906453
(dp3966
I925120
(dp3967
g2017
F0.174288
ssI206241
(dp3968
g2017
F0.113258
sssI431361
(dp3969
I41908
g3596
ssI380164
(dp3970
I168466
g2950
ssI918789
(dp3971
I61386
(dp3972
g2017
F0.030138
ssI929308
(dp3973
g2017
F0.115762
sssI922886
(dp3974
I291417
(dp3975
g2017
F0.0294
ssI207091
g2431
ssI924935
(dp3976
I906424
g3908
ssI906504
(dp3977
I915940
g3475
sI203079
g2638
sI927816
g2166
sI919817
g2487
sI920015
g2835
sI912916
(dp3978
g2017
F0.401997
ssI264346
g2296
ssI163083
(dp3979
I460257
(dp3980
g2017
F0.24269
ssI491354
(dp3981
g2017
F0.250995
ssI283413
(dp3982
g2017
F0.349157
ssI459255
g3618
ssI41915
(dp3983
I158450
g3317
sI387268
g2371
sI35119
g2573
ssI220431
(dp3984
I232985
(dp3985
g2017
F0.350514
ssI165746
(dp3986
g2017
F0.347274
ssI247386
(dp3987
g2017
F0.036799
ssI164666
g3482
sI158031
g2658
ssI304344
(dp3988
I509965
g2179
ssI42260
(dp3989
I50072
g3570
sI4713
g3087
sI3833
(dp3990
g2017
F0.299826
sssI908565
(dp3991
I291417
(dp3992
g2017
F0.0294
ssI907188
(dp3993
g2017
F0.098438
sssI466199
(dp3994
I448
g2815
sI289
g2542
sI217350
g2483
sI231919
g2875
sI158450
g3305
sI4819
g3252
sI219087
(dp3995
g2017
F0.037267
sssI228633
(dp3996
I3801
(dp3997
g2017
F0.476887
ssI247386
(dp3998
g2017
F0.037553
sssI291716
(dp3999
I236869
(dp4000
g2017
F0.360124
sssI238877
(dp4001
I127792
g3421
sI291472
g3157
ssI941957
(dp4002
I252557
g3149
ssI920866
(dp4003
I929308
(dp4004
g2017
F0.135069
sssI7459
(dp4005
I470026
g3704
sI462987
g2275
sI368458
(dp4006
g2017
F0.408366
ssI33979
g3910
sI32731
(dp4007
g2017
F0.4866
sssI210902
(dp4008
I263328
g3610
sI910329
g3681
sI219138
(dp4009
g2017
F0.233284
sssI285992
(dp4010
I285993
(dp4011
g2017
F0.579562
ssI547863
g3733
ssI285993
(dp4012
I285992
g4011
sI168950
g3674
sI547863
g3734
ssI29994
(dp4013
I5624
(dp4014
g2017
F0.211064
ssI503396
(dp4015
g2017
F0.681072
ssI127791
g3417
ssI920875
(dp4016
I221478
(dp4017
g2017
F0.395742
sssI427309
(dp4018
I13119
g3447
ssI224558
(dp4019
I204804
g2024
sI927501
(dp4020
g2017
F0.180348
sssI458032
(dp4021
I448
g2813
sI10857
(dp4022
g2017
F0.308965
ssI659247
(dp4023
g2017
F0.255402
ssI221074
(dp4024
g2017
F0.028966
ssI249
g2451
sI231919
g2884
sI677756
g3599
ssI234805
(dp4025
I127792
g3424
sI291417
(dp4026
g2017
F0.0294
ssI236650
g3825
ssI238904
(dp4027
I211882
g3582
sI264530
(dp4028
g2017
F0.084387
ssI204286
g3671
ssI52214
(dp4029
I570250
g3540
sI387268
g2372
sI158450
g3321
ssI460090
(dp4030
I372099
(dp4031
g2017
F0.028718
ssI794188
(dp4032
g2017
F0.27169
ssI273805
(dp4033
g2017
F0.27169
ssI808399
(dp4034
g2017
F0.300674
ssI4756
g3166
sI2063
g2045
sI312188
g3951
ssI273723
(dp4035
I168465
g2946
sI168466
g2952
ssI929084
(dp4036
I916096
g3137
sI927760
g2050
sI919517
(dp4037
g2017
F0.148689
ssI907583
g2612
ssI928650
(dp4038
I925120
(dp4039
g2017
F0.115172
ssI226282
(dp4040
g2017
F0.448812
ssI907188
(dp4041
g2017
F0.48238
ssI206789
(dp4042
g2017
F0.100636
ssI922047
g3959
ssI929086
(dp4043
I257027
g3698
sI61386
(dp4044
g2017
F0.030138
ssI364529
(dp4045
g2017
F0.933033
ssI910947
(dp4046
g2017
F0.229236
ssI228820
(dp4047
g2017
F0.521362
ssI926936
g3932
sI918267
g3339
ssI437567
(dp4048
I25442
g3493
sI915588
(dp4049
g2017
F0.907288
ssI164482
g3139
sI164173
g2186
ssI228159
(dp4050
I914681
g3962
sI289794
g3696
sI289643
g3509
sI165902
g2042
ssI236869
(dp4051
I291716
g4000
sI236581
g3749
ssI202654
(dp4052
I915752
g2569
sI203337
g3021
sI25108
g3842
sI905878
g3171
sI240585
g3616
sI906008
g3387
sI246100
g2668
sI247386
(dp4053
g2017
F0.0336
ssI223646
g2779
ssI208201
(dp4054
I3801
(dp4055
g2017
F0.476887
ssI25108
g3840
sI469484
g2866
ssI165194
(dp4056
I428204
g2332
sI228428
g3785
sI321637
g2208
sI316982
(dp4057
g2017
F0.282528
sssI236411
(dp4058
I203170
g2754
sI928645
g3534
sI913329
(dp4059
g2017
F0.090706
ssI165427
(dp4060
g2017
F0.23522
ssI165428
(dp4061
g2017
F0.202232
ssI343
g2680
sI928472
g3273
ssI292877
(dp4062
I289794
g3695
sI291629
g3410
ssI914317
(dp4063
I926748
g3828
ssI228688
(dp4064
I127792
g3429
sI907188
(dp4065
g2017
F0.202019
ssI25093
g3743
ssI486737
(dp4066
I809742
g3366
ssI515877
(dp4067
I4819
g3259
ssI570711
(dp4068
I158450
g3314
sI339764
(dp4069
g2017
F0.9
ssI277
g2516
ssI742744
(dp4070
I28614
(dp4071
g2017
F0.294891
sssI64857
(dp4072
I158450
g3315
sI372099
(dp4073
g2017
F0.037915
ssI4812
g3246
sI413221
(dp4074
g2017
F0.778895
ssI295853
(dp4075
g2017
F0.0379
sssI467787
(dp4076
I4700
g3074
sI295853
(dp4077
g2017
F0.037272
sssI941404
(dp4078
I341057
g3775
sI942151
g2763
ssI148834
(dp4079
I483318
(dp4080
g2017
F0.290537
ssI35951
g3176
ssI929126
(dp4081
I924736
g3773
sI230744
g3858
sI206789
(dp4082
g2017
F0.425705
ssI291417
(dp4083
g2017
F0.0294
sssI909230
(dp4084
I916454
g3651
ssI826236
(dp4085
I626999
g2598
ssI2962
(dp4086
I20558
g2176
ssI941425
(dp4087
I339764
(dp4088
g2017
F0.297895
sssI221478
(dp4089
I263185
g3719
sI920875
g4017
sI276419
(dp4090
g2017
F0.18097
ssI912902
(dp4091
g2017
F0.213377
ssI927249
(dp4092
g2017
F0.198651
sssI50547
(dp4093
I599
g3051
sI4819
g3258
sI238703
g3831
ssI318839
(dp4094
I164287
g2810
ssI228729
(dp4095
I925120
(dp4096
g2017
F0.162511
ssI225242
(dp4097
g2017
F0.229021
ssI248717
g3547
sI908301
g3712
ssI427387
(dp4098
I18763
g2652
sI2445
g2731
sI5031
(dp4099
g2017
F0.141412
sssI226684
(dp4100
I25168
g3040
sI236581
g3748
ssI914815
(dp4101
I918006
g2938
sI926742
g3731
ssI372099
(dp4102
I468160
g2098
sI468900
(dp4103
g2017
F0.037011
ssI480295
g3751
sI469484
g2864
sI481629
g2688
sI468017
g3758
sI469075
g2896
sI479061
(dp4104
g2017
F0.039668
ssI462486
(dp4105
g2017
F0.037586
ssI468793
(dp4106
g2017
F0.037915
ssI465944
g2284
sI64857
g4073
sI460090
g4031
sI462847
(dp4107
g2017
F0.038683
ssI483389
g2703
sI465087
g3844
ssI910725
(dp4108
I926912
g2857
sI925120
(dp4109
g2017
F0.096478
ssI915940
g3477
sI913329
(dp4110
g2017
F0.383127
ssI227506
g2343
sI920184
(dp4111
g2017
F0.404462
ssI214628
(dp4112
g2017
F0.093533
ssI264346
g2303
sI929536
(dp4113
g2017
F0.363836
sssI174999
(dp4114
I226215
g3580
ssI916876
(dp4115
I910329
g3680
sI291417
(dp4116
g2017
F0.0294
sssI273805
(dp4117
I460090
g4033
ssI914328
(dp4118
I224838
(dp4119
g2017
F0.334671
sssI294291
(dp4120
I248254
g2799
ssI445849
(dp4121
I174128
g2123
sI212725
g3204
ssI408987
(dp4122
I61386
(dp4123
g2017
F0.021096
ssI308
g2590
ssI445853
(dp4124
I174128
g2124
ssI255391
(dp4125
I919889
g2662
sI251959
g2138
sI483572
g2440
sI260391
g2566
ssI473871
(dp4126
I221074
(dp4127
g2017
F0.037231
ssI277
g2506
ssI319728
(dp4128
I167128
(dp4129
g2017
F0.183108
ssI171812
(dp4130
g2017
F0.301237
ssI912380
g3686
sI14039
g2489
ssI430321
(dp4131
I167128
(dp4132
g2017
F0.176871
sssI476584
(dp4133
I61386
(dp4134
g2017
F0.031479
ssI247386
(dp4135
g2017
F0.038556
ssI568115
g3438
sI295853
(dp4136
g2017
F0.037272
ssI231919
g2879
ssI458155
(dp4137
I103251
g3470
sI4756
g3163
sI231919
g2876
ssI16626
(dp4138
I346425
(dp4139
g2017
F0.26234
sssI249262
(dp4140
I929536
(dp4141
g2017
F0.134804
ssI204658
g3898
ssI208303
(dp4142
I211882
g3585
sI908780
(dp4143
g2017
F0.29109
ssI25108
g3841
sI905296
(dp4144
g2017
F0.156037
ssI227506
g2342
sI907188
(dp4145
g2017
F0.30567
ssI910329
g3682
sI905151
(dp4146
g2017
F0.182033
sssI327088
(dp4147
I167117
g3924
ssI344990
(dp4148
I247386
(dp4149
g2017
F0.028174
ssI291419
(dp4150
g2017
F0.159996
sssI927158
(dp4151
I909680
g2707
ssI868596
(dp4152
I60237
g3461
ssI906683
(dp4153
I264346
g2302
sI912916
(dp4154
g2017
F0.395124
ssI206789
(dp4155
g2017
F0.10385
sssI167128
(dp4156
I260507
g2744
sI412678
g3700
sI428204
g2331
sI319728
g4129
sI430321
g4132
sI219867
g3278
sI173982
(dp4157
g2017
F0.49984
sssI908733
(dp4158
I911989
g3116
ssI923070
(dp4159
I351070
g3484
sI248254
g2803
sI351134
g3573
ssI230891
(dp4160
I262754
g3083
sI918267
g3335
sI308
g2586
sI238130
g2999
ssI925120
(dp4161
I910725
g4109
sI911142
(dp4162
g2017
F0.092135
ssI203337
g3017
sI928650
g4039
sI908301
g3711
sI906453
g3967
sI928472
g3265
sI228729
g4096
ssI497090
(dp4163
I212050
g3793
ssI208325
(dp4164
I25168
g3036
sI61386
(dp4165
g2017
F0.030138
ssI912348
g3639
ssI427462
(dp4166
I2152
g2212
sI2445
g2733
ssI52683
(dp4167
I263328
g3609
sI62137
g3212
sI387268
g2370
sI44982
(dp4168
g2017
F0.21148
sssI916940
(dp4169
I61386
(dp4170
g2017
F0.030138
ssI911987
g3112
sI916454
g3649
ssI153037
(dp4171
I219867
g3280
ssI808399
(dp4172
I460090
g4034
ssI167378
(dp4173
I2090
g2106
ssI925139
(dp4174
I916454
g3650
ssI228820
(dp4175
I19977
(dp4176
g2017
F0.350721
ssI929086
g4047
sI926742
g3730
ssI260686
(dp4177
I172247
g2409
sI167827
(dp4178
g2017
F0.354059
ssI172151
g2259
ssI239062
(dp4179
I207091
g2432
sI922093
g2873
ssI923097
(dp4180
I952235
(dp4181
g2017
F0.462912
ssI214403
(dp4182
g2017
F0.325729
sssI939483
(dp4183
I927249
(dp4184
g2017
F0.156725
ssI939541
(dp4185
g2017
F0.10082
sssI450012
(dp4186
I2394
g2684
ssI460257
(dp4187
I291417
(dp4188
g2017
F0.035373
ssI163083
g3980
sI244887
g3874
ssI30181
(dp4189
I803233
g2751
sI158450
g3318
sI754555
g3942
sI20558
g2177
sI291417
(dp4190
g2017
F0.035373
sssI435686
(dp4191
I277
g2520
ssI34279
(dp4192
I33980
g3913
sI97037
g3362
ssI5031
(dp4193
I397536
g2414
sI407792
(dp4194
g2017
F0.141412
ssI43459
g2818
sI467955
g3669
sI413221
(dp4195
g2017
F0.146398
ssI453607
g3655
sI397481
g2327
sI469484
g2865
sI32731
(dp4196
g2017
F0.198606
ssI631919
g2988
sI387600
g2943
sI411251
(dp4197
g2017
F0.135079
ssI478917
(dp4198
g2017
F0.198606
ssI171811
(dp4199
g2017
F0.449731
ssI351070
g3485
sI62137
g3214
sI427387
g4099
sI472751
(dp4200
g2017
F0.198606
ssI627198
g2916
sI28863
g2367
ssI908780
(dp4201
I916642
g3888
sI914538
g3727
sI919085
(dp4202
g2017
F0.662521
ssI208303
g4143
sI236276
g3324
sI905878
g3170
sI910329
g3678
ssI34285
(dp4203
I6345
g2381
ssI513523
(dp4204
I216720
(dp4205
g2017
F0.325912
ssI506727
g3506
sI462987
g2274
sI4812
g3243
sI127792
g3433
sI158450
g3320
ssI278004
(dp4206
I395804
g2971
ssI366070
(dp4207
I919865
g2602
ssI48631
(dp4208
I127792
g3435
sI264530
(dp4209
g2017
F0.074134
ssI4715
g3092
ssI5624
(dp4210
I331271
(dp4211
g2017
F0.177293
ssI29994
g4014
sI483408
g3819
sI576567
g3765
sI416792
g3737
sI627198
g2915
ssI388606
(dp4212
I18763
g2653
ssI919041
(dp4213
I912347
g3222
sI917933
g2765
ssI917419
(dp4214
I920184
(dp4215
g2017
F0.482697
ssI924690
g3723
sI226029
g3297
sI203170
g2756
ssI912902
(dp4216
I252605
g3220
sI221478
g4091
sI293391
g2941
ssI331271
(dp4217
I5624
g4211
sI7253
g3799
ssI19977
(dp4218
I44948
(dp4219
g2017
F0.313102
ssI491354
(dp4220
g2017
F0.343147
ssI469075
g2895
sI228820
g4176
ssI907667
(dp4221
I924736
g3772
sI905298
g2189
ssI295853
(dp4222
I468160
g2099
sI481959
g3193
sI476584
g4136
sI467787
g4077
sI466860
(dp4223
g2017
F0.038263
ssI480815
(dp4224
g2017
F0.039653
ssI472616
(dp4225
g2017
F0.039127
ssI467955
g3668
sI64857
g4075
sI462847
(dp4226
g2017
F0.038669
ssI474685
(dp4227
g2017
F0.034645
ssI473054
(dp4228
g2017
F0.0379
ssI473823
g2605
ssI927249
(dp4229
I939483
g4184
sI252557
g3152
sI221478
g4092
ssI466450
(dp4230
I260391
g2561
sI27275
g3143
sI311632
g2660
sI158450
g3304
sI312188
g3948
sI6174
g2081
ssI912916
(dp4231
I906504
g3978
sI920184
(dp4232
g2017
F0.08977
ssI264346
g2300
sI906683
g4154
ssI939541
(dp4233
I938658
g3186
sI939483
g4185
sI217198
g2237
sI293391
g2940
ssI291417
(dp4234
I29446
g3350
sI242823
g3864
sI332168
g2578
sI916876
g4116
sI202769
g2054
sI46318
g3956
sI446271
(dp4235
g2017
F0.02058
ssI29856
g3885
sI922886
g3975
sI913329
(dp4236
g2017
F0.0294
ssI220329
g3894
sI917256
(dp4237
g2017
F0.0294
ssI227506
g2345
sI263957
g3904
sI234805
g4026
sI211510
g3002
sI330295
g3004
sI905276
g2147
sI28863
g2365
sI908992
(dp4238
g2017
F0.0294
ssI221761
g3009
sI206789
(dp4239
g2017
F0.0294
ssI575687
g2374
sI919759
g2394
sI238546
g3628
sI909140
g2771
sI928472
g3272
sI41946
g3633
sI219867
g3279
sI208604
(dp4240
g2017
F0.0294
ssI215647
g3079
sI460257
g4188
sI911844
g2851
sI30181
g4190
sI929126
g4083
sI453607
g3654
sI35260
g2784
sI228971
(dp4241
g2017
F0.0294
ssI37486
g3095
sI203254
g2901
sI247931
g2263
sI379901
g3689
sI435966
(dp4242
g2017
F0.02058
ssI908565
g3992
ssI232985
(dp4243
I220431
g3985
ssI224794
(dp4244
I247386
(dp4245
g2017
F0.036517
ssI165427
(dp4246
g2017
F0.225463
ssI907583
g2611
ssI208815
(dp4247
I223216
(dp4248
g2017
F0.218357
ssI1667
(dp4249
g2017
F0.470024
ssI4759
(dp4250
g2017
F0.731027
sssI929308
(dp4251
I920866
g4004
sI918789
g3973
sI260488
g2726
sI248398
g3516
sI223183
(dp4252
g2017
F0.197078
ssI909076
g3125
sI928188
(dp4253
g2017
F0.229323
sssI25178
(dp4254
I254206
g2467
ssI218654
(dp4255
I926912
g2858
sI928472
g3274
sI204658
g3902
sI25134
g2996
sI913329
(dp4256
g2017
F0.177909
sssI230946
(dp4257
I25168
g3034
sI924826
g3879
ssI291419
(dp4258
I212121
g3877
sI204764
(dp4259
g2017
F0.21833
ssI214628
(dp4260
g2017
F0.205994
ssI344990
g4150
sI254206
g2468
ssI413221
(dp4261
I64857
g4074
sI5031
g4195
ssI238513
(dp4262
I927816
g2167
sI905296
(dp4263
g2017
F0.174889
sssI472616
(dp4264
I4203
g2221
sI295853
g4225
sI231919
g2877
sI219087
(dp4265
g2017
F0.039121
sssI239078
(dp4266
I266002
(dp4267
g2017
F0.111121
sssI5676
(dp4268
I454985
g2644
sI476158
(dp4269
g2017
F0.303485
ssI166751
g3488
ssI919085
(dp4270
I908780
g4202
ssI480815
(dp4271
I219087
(dp4272
g2017
F0.039647
ssI295853
g4224
sI231919
g2883
ssI165427
(dp4273
I262897
g3301
sI224794
g4246
sI236411
g4060
ssI165428
(dp4274
I221761
g3010
sI373154
g2832
sI252214
g2595
sI236411
g4061
sI341628
(dp4275
g2017
F0.141562
ssI381117
g2362
ssI316982
(dp4276
I165194
g4057
sI171811
(dp4277
g2017
F0.315582
ssI13925
(dp4278
g2017
F0.271659
sssI343607
(dp4279
I247386
(dp4280
g2017
F0.028174
ssI4756
g3165
ssI468538
(dp4281
I809742
g3368
ssI597564
(dp4282
I468793
(dp4283
g2017
F0.153697
ssI465189
g2548
ssI474685
(dp4284
I6738
g3045
sI295853
g4227
sI217350
g2485
sI260391
g2559
ssI290367
(dp4285
I289794
g3694
sI2069
g2268
ssI527937
(dp4286
I308
g2585
sI277
g2511
ssI224838
(dp4287
I230744
g3856
sI25120
g2982
sI222545
(dp4288
g2017
F0.083701
ssI916201
g3293
sI248216
g2742
sI25108
g3838
sI914328
g4119
sI921562
(dp4289
g2017
F0.155909
ssI955452
g3769
ssI222792
(dp4290
I25168
g3037
sI127734
g3329
ssI321323
(dp4291
I564826
g3605
sI529483
g3783
sI519101
g3607
sI584503
(dp4292
g2017
F0.079398
sssI917066
(dp4293
I260488
g2727
sI911987
g3110
sI907597
g2655
ssI794188
(dp4294
I460090
g4032
ssI928188
(dp4295
I926936
g3931
sI929308
g4253
ssI906836
(dp4296
I240602
g3717
sI905151
(dp4297
g2017
F0.124484
sssI454231
(dp4298
I924690
g3724
ssI503396
(dp4299
I29994
g4015
sI41284
g2635
sI481645
g2697
sI377742
g3550
ssI247386
(dp4300
I219138
(dp4301
g2017
F0.034738
ssI242823
g3865
sI220431
g3987
sI206241
(dp4302
g2017
F0.036274
ssI233619
g2288
sI340500
g2956
sI248727
g3567
sI212121
g3876
sI224794
g4245
sI344990
g4149
sI29856
g3886
sI51233
g2086
sI218914
g3249
sI339751
(dp4303
g2017
F0.028174
ssI476584
g4135
sI255785
(dp4304
g2017
F0.038877
ssI466860
(dp4305
g2017
F0.039581
ssI35119
g2574
sI202654
g4053
sI330295
g3005
sI248634
g3443
sI465087
g3845
sI210884
(dp4306
g2017
F0.036517
ssI249669
(dp4307
g2017
F0.038877
ssI575687
g2375
sI458955
g2387
sI250830
g3625
sI225238
(dp4308
g2017
F0.036799
ssI228633
g3998
sI339745
(dp4309
g2017
F0.027214
ssI349151
g3641
sI343607
g4280
sI62442
g3658
sI345581
g3554
sI335985
g2246
sI248819
(dp4310
g2017
F0.038877
ssI45844
g3379
sI247931
g2264
sI476158
(dp4311
g2017
F0.038556
sssI296541
(dp4312
I491354
(dp4313
g2017
F0.250995
ssI491350
(dp4314
g2017
F0.253654
sssI376414
(dp4315
I4203
g2224
sI291551
g3290
ssI13925
(dp4316
I316982
g4278
ssI376418
(dp4317
I291551
g3286
ssI910947
(dp4318
I912348
g3638
sI225238
(dp4319
g2017
F0.116845
ssI929086
g4046
ssI214628
(dp4320
I203170
g2755
sI910725
g4112
sI209679
g3373
sI4756
g3161
sI230744
g3854
sI921562
(dp4321
g2017
F0.133888
ssI291419
g4260
ssI507493
(dp4322
I377741
g2320
ssI466535
(dp4323
I219087
(dp4324
g2017
F0.038663
ssI245831
g2163
ssI34296
(dp4325
I277
g2524
sI6174
g2083
ssI224874
(dp4326
I291418
g3061
sI25134
g2992
ssI228971
(dp4327
I291417
g4241
sI221106
(dp4328
g2017
F0.27269
ssI248717
g3545
sI928575
g3523
ssI265836
(dp4329
I214806
(dp4330
g2017
F0.54075
sssI376430
(dp4331
I167827
(dp4332
g2017
F0.247841
ssI291551
g3287
ssI228976
(dp4333
I907973
g3226
sI226029
g3295
ssI943729
(dp4334
I248254
g2798
ssI411251
(dp4335
I5031
g4197
ssI376436
(dp4336
I166385
g2893
sI291551
g3288
ssI241269
(dp4337
I127792
g3434
sI238546
g3629
sI169916
(dp4338
g2017
F0.453495
ssI204658
g3900
ssI479061
(dp4339
I61386
(dp4340
g2017
F0.031479
ssI372099
g4104
sI231919
g2886
sI219087
(dp4341
g2017
F0.039647
sssI10857
(dp4342
I458032
g4022
ssI341628
(dp4343
I165428
g4275
ssI319101
(dp4344
I174995
g3562
ssI475413
(dp4345
I448
g2814
sI61386
(dp4346
g2017
F0.031479
ssI4903
g3401
ssI319105
(dp4347
I174995
g3559
ssI1667
(dp4348
I334922
g3781
sI208815
g4249
ssI32731
(dp4349
I46315
g3954
sI470026
g3707
sI7459
g4007
sI5031
g4196
sI547863
g3735
ssI362125
(dp4350
I14041
g2527
sI165071
g3927
sI455237
g3013
sI343
g2677
ssI898702
(dp4351
I505802
(dp4352
g2017
F0.8
sssI210575
(dp4353
I4728
g3121
sI211882
g3584
ssI216720
(dp4354
I62137
g3211
sI513523
g4205
ssI480913
(dp4355
I491354
(dp4356
g2017
F0.716767
ssI865427
g3870
sI260391
g2560
ssI276419
(dp4357
I924796
g3850
sI221478
g4090
sI214806
(dp4358
g2017
F0.19859
ssI220887
(dp4359
g2017
F0.551915
sssI353940
(dp4360
I506727
g3505
sI508677
g3344
sI509973
g2059
ssI507541
(dp4361
I232561
g3833
sI377742
g3552
ssI376470
(dp4362
I167827
(dp4363
g2017
F0.247841
ssI41284
g2634
sI172151
g2260
ssI215486
(dp4364
I144635
g3964
sI343
g2682
ssI380571
(dp4365
I380573
(dp4366
g2017
F0.196198
ssI349151
g3643
ssI339745
(dp4367
I919865
g2601
sI247386
g4309
sI470934
(dp4368
g2017
F0.83973
sssI380573
(dp4369
I61386
(dp4370
g2017
F0.021096
ssI380571
g4366
ssI342651
(dp4371
I236650
g3824
ssI206789
(dp4372
I929126
g4082
sI928650
g4042
sI207091
g2430
sI905878
g3172
sI14039
g2491
sI230744
g3855
sI291417
g4239
sI906683
g4155
ssI37489
(dp4373
I593193
(dp4374
g2017
F0.28556
ssI37486
g3094
ssI216744
(dp4375
I25098
g2929
sI206591
(dp4376
g2017
F0.139647
sssI929453
(dp4377
I230744
g3857
sI264346
g2297
sI207955
g3796
sI914444
g3709
ssI472751
(dp4378
I5031
g4200
sI231919
g2889
ssI688755
(dp4379
I29446
g3346
ssI289411
(dp4380
I291629
g3409
ssI439241
(dp4381
I928472
g3267
sI929636
(dp4382
g2017
F0.340583
ssI206591
(dp4383
g2017
F0.172471
sssI46021
(dp4384
I468160
g2096
sI29506
g3451
ssI911036
(dp4385
I395804
g2972
sI290775
(dp4386
g2017
F0.159204
sssI505802
(dp4387
I377741
g2322
sI898702
g4352
sI377742
g3551
ssI654965
(dp4388
I491354
(dp4389
g2017
F0.246388
ssI488287
g3767
ssI908992
(dp4390
I291417
g4238
sI911989
g3115
ssI317419
(dp4391
I173143
g3803
ssI149186
(dp4392
I469484
g2863
ssI220867
(dp4393
I25168
g3035
sI25176
g3053
sI470026
g3706
sI911987
g3111
ssI478917
(dp4394
I2010
(dp4395
g2017
F0.266001
ssI809742
g3369
sI5031
g4198
ssI172345
(dp4396
I291629
g3408
sI215647
g3078
ssI579279
(dp4397
I277
g2514
ssI1048
(dp4398
I260507
g2745
ssI920184
(dp4399
I929536
(dp4400
g2017
F0.132593
ssI206241
(dp4401
g2017
F0.386131
ssI910725
g4111
sI917419
g4215
sI908301
g3713
sI912916
g4232
sI205118
g2607
sI921562
(dp4402
g2017
F0.101371
ssI204286
g3672
ssI355630
(dp4403
I4730
g3128
ssI206548
(dp4404
I215833
g3389
ssI220887
(dp4405
I276419
g4359
sI171812
(dp4406
g2017
F0.430338
ssI263185
g3720
sI214806
(dp4407
g2017
F0.158821
ssI291418
g3067
sI248254
g2802
ssI36568
(dp4408
I264530
(dp4409
g2017
F0.073587
ssI27275
g3142
sI7253
g3801
ssI3801
(dp4410
I228633
g3997
sI370417
(dp4411
g2017
F0.333821
ssI208201
g4055
ssI223183
(dp4412
I61386
(dp4413
g2017
F0.030138
ssI929308
g4252
ssI208604
(dp4414
I929536
(dp4415
g2017
F0.201268
ssI291417
g4240
sI25098
g2933
ssI265949
(dp4416
I214806
(dp4417
g2017
F0.54075
sssI206558
(dp4418
I266002
(dp4419
g2017
F0.106512
sssI292816
(dp4420
I395804
g2964
ssI290531
(dp4421
I395804
g2965
ssI753381
(dp4422
I35329
g2921
ssI909311
(dp4423
I41284
g2636
sI307886
g3200
ssI165609
(dp4424
I221761
g3011
sI415117
(dp4425
g2017
F0.158864
ssI353726
g2641
sI381431
g2904
ssI209191
(dp4426
I266002
(dp4427
g2017
F0.111121
ssI25108
g3839
ssI370417
(dp4428
I3801
g4411
sI469484
g2868
ssI913139
(dp4429
I913714
g2582
ssI136948
(dp4430
I28614
(dp4431
g2017
F0.294891
sssI939765
(dp4432
I942322
g2428
sI250830
g3624
ssI255734
(dp4433
I291418
g3066
sI214806
(dp4434
g2017
F0.239272
sssI593193
(dp4435
I37489
g4374
sI37490
g3107
ssI52984
(dp4436
I127792
g3436
sI244887
g3873
sI33740
g3620
sI127791
g3414
ssI3833
(dp4437
I441097
g3356
sI42260
g3990
ssI937723
(dp4438
I908104
g3453
sI283417
g3174
sI351134
g3572
sI252605
g3219
sI338462
g2976
ssI904957
(dp4439
I241849
g2352
sI927380
(dp4440
g2017
F0.27215
ssI212004
g3746
ssI435966
(dp4441
I291417
g4242
ssI206591
(dp4442
I216744
g4376
sI207169
g2621
sI25134
g2997
sI439241
g4383
ssI929536
(dp4443
I910725
g4113
sI248934
g3815
sI249262
g4141
sI913329
(dp4444
g2017
F0.20756
ssI204658
g3896
sI920430
g3512
sI920184
g4400
sI208604
g4415
ssI239362
(dp4445
I909680
g2705
sI4819
g3254
ssI659205
(dp4446
I826396
g3741
ssI917256
(dp4447
I291417
g4237
sI907948
g3195
ssI927501
(dp4448
I925473
(dp4449
g2017
F0.398838
ssI208771
(dp4450
g2017
F0.095165
ssI224558
g4020
sI918214
g3231
ssI370635
(dp4451
I4713
g3089
ssI204559
(dp4452
I174995
g3558
ssI225242
(dp4453
I228729
g4097
ssI397073
(dp4454
I395804
g2967
ssI266002
(dp4455
I240787
g3518
sI211099
g3577
sI239078
g4267
sI206558
g4419
sI209191
g4427
ssI248451
(dp4456
I167366
g3190
sI248727
g3568
ssI283413
(dp4457
I163083
g3982
ssI503573
(dp4458
I454985
g2645
ssI214806
(dp4459
I276419
g4358
sI265836
g4330
sI255734
g4434
sI220887
g4407
sI25176
g3057
sI287387
(dp4460
g2017
F0.313822
ssI265949
g4417
ssI730904
(dp4461
I33980
g3915
ssI294682
(dp4462
I914681
g3961
sI289643
g3508
ssI921562
(dp4463
I920184
g4402
sI221193
g2032
sI907948
g3196
sI224838
g4289
sI214628
g4321
ssI925473
(dp4464
I248308
g2899
sI927501
g4449
ssI171810
(dp4465
I6985
g3455
sI4812
g3238
sI171812
(dp4466
g2017
F0.628412
sssI171811
(dp4467
I203337
g3018
sI5031
g4199
sI428204
g2333
sI316982
g4277
sI434615
g2782
ssI171812
(dp4468
I319728
g4130
sI171810
g4466
sI428204
g2334
sI220887
g4406
ssI358181
(dp4469
I4819
g3255
ssI911142
(dp4470
I925120
g4162
sI220329
g3891
sI913287
(dp4471
g2017
F0.124069
ssI905276
g2150
sI207169
g2616
ssI339751
(dp4472
I940136
g3105
sI247386
g4303
sI217196
g2227
sI351134
g3574
ssI255785
(dp4473
I247386
g4304
sI169916
(dp4474
g2017
F0.453495
sssI464683
(dp4475
I349115
g3603
sI771917
(dp4476
g2017
F0.388098
ssI349151
g3642
sI231919
g2881
ssI659247
(dp4477
I458032
g4023
sI33980
g3914
ssI407792
(dp4478
I18763
g2650
sI5031
g4194
ssI60283
(dp4479
I60237
g3459
ssI339764
(dp4480
I941425
g4088
sI277
g2509
sI25134
g2994
sI570711
g4069
ssI177975
(dp4481
I127734
g3330
ssI468793
(dp4482
I312188
g3950
sI58
g2142
sI372099
g4106
sI597564
g4283
sI578793
g2907
ssI350010
(dp4483
I4387
g2544
ssI467679
(dp4484
I49
g2129
sI277
g2518
ssI446271
(dp4485
I2152
g2216
sI291417
g4235
sI25098
g2934
ssI915588
(dp4486
I437567
g4049
ssI464707
(dp4487
I4728
g3119
sI277
g2512
sI260391
g2554
ssI249669
(dp4488
I25168
g3041
sI247386
g4307
sI275685
g3944
ssI368458
(dp4489
I911987
g3113
sI7459
g4006
sI168950
g3675
sI260391
g2556
ssI771917
(dp4490
I464683
g4476
ssI477010
(dp4491
I657436
g2068
sI312188
g3952
sI217350
g2481
ssI468819
(dp4492
I289
g2540
sI599
g3049
ssI366420
(dp4493
I61386
(dp4494
g2017
F0.021096
ssI462987
g2276
ssI554837
(dp4495
I249
g2454
sI291418
g3065
sI20558
g2175
ssI491350
(dp4496
I296541
g4314
ssI346425
(dp4497
I16626
g4139
sI455165
g2912
sI25093
g3744
ssI491354
(dp4498
I19977
g4220
sI163083
g3981
sI45647
g3030
sI480913
g4356
sI865427
g3871
sI654965
g4389
sI826396
g3740
sI296541
g4313
ssI472925
(dp4499
I221074
(dp4500
g2017
F0.035661
ssI4812
g3241
sI6174
g2084
sI6262
g2254
ssI4752
(dp4501
I526186
(dp4502
g2017
F0.238346
ssI45594
g2961
sI458955
g2386
sI28863
g2364
sI248727
g3566
ssI929636
(dp4503
I439241
g4382
sI264346
g2293
ssI628581
(dp4504
I32812
g2113
ssI526186
(dp4505
I4752
g4502
sI6520
g2717
sI466860
(dp4506
g2017
F0.716767
ssI127791
g3416
ssI341655
(dp4507
I4730
g3129
ssI536431
(dp4508
I45844
g3378
ssI466800
(dp4509
I573394
(dp4510
g2017
F0.69644
ssI520465
g2498
sI49354
g2384
sI7253
g3800
sI221074
(dp4511
g2017
F0.036956
sssI368497
(dp4512
I4965
g3502
sI926742
g3729
sI260391
g2563
ssI165746
(dp4513
I332168
g2576
sI220431
g3986
ssI924990
(dp4514
I905296
(dp4515
g2017
F0.104354
ssI242823
g3866
ssI450422
(dp4516
I41284
g2627
sI6174
g2082
sI168950
g3676
ssI474999
(dp4517
I520465
g2500
sI61386
(dp4518
g2017
F0.031479
ssI256491
g2861
sI231919
g2888
ssI927380
(dp4519
I928472
g3271
sI904957
g4440
ssI468860
(dp4520
I308
g2591
sI714581
g3236
sI219087
(dp4521
g2017
F0.034165
sssI226282
(dp4522
I928650
g4040
sI905151
(dp4523
g2017
F0.564142
sssI452479
(dp4524
I924796
g3851
ssI208771
(dp4525
I927760
g2049
sI913287
(dp4526
g2017
F0.682337
ssI929992
g2378
sI927501
g4450
sI919759
g2396
sI127792
g3419
ssI216585
(dp4527
I25098
g2930
sI25442
g3492
sI916189
g3284
ssI462486
(dp4528
I372099
g4105
sI312188
g3949
sI219087
(dp4529
g2017
F0.037567
sssI913287
(dp4530
I220329
g3892
sI208771
g4526
sI911142
g4471
ssI4759
(dp4531
I208815
g4250
ssI214403
(dp4532
I784
g3691
sI249
g2452
sI41284
g2625
sI165902
g2039
sI923097
g4182
ssI221074
(dp4533
I457952
g3939
sI466800
g4511
sI466946
g2019
sI482180
g3532
sI462373
g3936
sI470026
g3705
sI469484
g2869
sI465709
g2093
sI470062
g3755
sI472925
g4500
sI458032
g4024
sI465685
g3382
sI471733
g3206
sI465700
g3398
sI473871
g4127
sI483389
g2702
sI473054
(dp4534
g2017
F0.037858
ssI465189
g2547
ssI167827
(dp4535
I332168
g2577
sI260686
g4178
sI376470
g4363
sI376430
g4332
ssI44948
(dp4536
I19977
g4219
ssI470934
(dp4537
I339745
g4368
sI1211
g3810
sI231919
g2887
ssI530327
(dp4538
I277
g2507
ssI206746
(dp4539
I291569
g2758
ssI458651
(dp4540
I809808
g3466
sI1211
g3809
sI412678
g3701
ssI173982
(dp4541
I167128
g4157
ssI337824
(dp4542
I291418
g3060
sI4965
g3501
ssI567201
(dp4543
I4819
g3253
sI465405
g3662
ssI206241
(dp4544
I928839
g3779
sI906453
g3968
sI905878
g3168
sI920184
g4401
sI264346
g2295
sI247386
g4302
sI910111
g3394
ssI287387
(dp4545
I214806
g4460
ssI468900
(dp4546
I809763
g3396
sI372099
g4103
sI4965
g3503
sI219087
(dp4547
g2017
F0.036992
sssI575473
(dp4548
I468017
g3760
sI895843
g3496
sI4819
g3257
sI826353
g3665
ssI294824
(dp4549
I926748
g3827
sI227997
g3180
ssI825258
(dp4550
I4728
g3120
sI61551
g2240
ssI952235
(dp4551
I923097
g4181
sI41284
g2630
ssI466860
(dp4552
I61386
(dp4553
g2017
F0.031479
ssI295853
g4223
sI219087
(dp4554
g2017
F0.038258
ssI247386
g4305
sI231919
g2880
sI526186
g4506
ssI415117
(dp4555
I2152
g2213
sI165609
g4425
ssI462493
(dp4556
I61386
(dp4557
g2017
F0.031479
ssI508494
g3027
sI231919
g2890
sI520465
g2501
sI158450
g3306
sI219087
(dp4558
g2017
F0.037267
sssI913329
(dp4559
I929536
g4444
sI910725
g4110
sI204658
g3899
sI291417
g4236
sI236411
g4059
sI218654
g4256
ssI221106
(dp4560
I228971
g4328
sI918214
g3230
sI25134
g2993
ssI248819
(dp4561
I940136
g3104
sI247386
g4310
sI293139
g2503
sI928860
g3805
sI270430
g2203
ssI907188
(dp4562
I228688
g4065
sI220329
g3893
sI928650
g4041
sI922093
g2872
sI208303
g4145
sI246928
g3490
sI909140
g2772
sI908565
g3993
sI921756
g2309
ssI403381
(dp4563
I395804
g2974
ssI44982
(dp4564
I249
g2448
sI52683
g4168
ssI169916
(dp4565
I255785
g4474
sI241269
g4338
ssI905151
(dp4566
I905296
(dp4567
g2017
F0.114453
ssI226282
g4523
sI208303
g4146
sI906836
g4297
sI922727
g3817
ssI40896
(dp4568
I4903
g3400
ssI423875
(dp4569
I25098
g2928
ssI210884
(dp4570
I2090
g2103
sI164666
g3481
sI247386
g4306
sI907429
g2318
sI25134
g2990
ssI340982
(dp4571
I940929
g3529
ssI28614
(dp4572
I742744
g4071
sI136948
g4431
sI277
g2513
sI514285
g2417
ssI389064
(dp4573
I174995
g3560
ssI997321
(dp4574
I41284
g2629
sI509973
g2057
ssI61386
(dp4575
I466946
g2016
sI463645
g3392
sI918789
g3972
sI475413
g4346
sI475567
g2768
sI380573
g4370
sI465439
g2978
sI218914
g3248
sI408987
g4123
sI476584
g4134
sI466860
g4553
sI462493
g4557
sI468017
g3759
sI929086
g4044
sI468160
g2097
sI215371
g2534
sI208325
g4165
sI245831
g2162
sI916940
g4170
sI458955
g2388
sI228428
g3786
sI223183
g4413
sI483408
g3820
sI366420
g4494
sI479061
g4340
sI339929
(dp4576
g2017
F0.021096
ssI481629
g2687
sI469484
g2867
sI518901
g3326
sI483318
(dp4577
g2017
F0.031479
ssI474999
g4518
sI358779
g2720
sI932479
g3135
ssI407499
(dp4578
I407500
(dp4579
g2017
F0.42
sssI407500
(dp4580
I25098
g2932
sI407499
g4579
ssI219087
(dp4581
I462987
g2278
sI475788
g3146
sI462486
g4529
sI466199
g3995
sI462493
g4558
sI468900
g4547
sI481959
g3192
sI472616
g4265
sI466860
g4554
sI480815
g4272
sI471733
g3207
sI463293
g2790
sI468160
g2100
sI458955
g2389
sI483408
g3822
sI479061
g4341
sI457952
g3940
sI481761
g2849
sI466535
g4324
sI481645
g2698
sI468860
g4521
sI476158
(dp4582
g2017
F0.037267
sssI247760
(dp4583
I249
g2447
sI270315
(dp4584
g2017
F0.170547
sssI584503
(dp4585
I321323
g4292
ssI573394
(dp4586
I466800
g4510
sI158450
g3319
ssI225238
(dp4587
I249
g2455
sI247386
g4308
sI910947
g4319
sI912348
g3637
sI912380
g3687
ssI290775
(dp4588
I395804
g2970
sI911036
g4386
sI396180
g3564
ssI473048
(dp4589
I212050
g3792
sI4715
g3091
sI525135
g3635
ssI339929
(dp4590
I61386
g4576
sI20558
g2173
ssI2010
(dp4591
I478917
g4395
sI626999
g2597
ssI8155
(dp4592
I568080
g3081
sI202826
g2715
sI367486
g3526
sI35119
g2572
ssI204764
(dp4593
I25168
g3038
sI291419
g4259
sI343
g2676
ssI919517
(dp4594
I926912
g2859
sI915940
g3476
sI907973
g3228
sI222545
(dp4595
g2017
F0.245132
ssI204658
g3901
sI929084
g4037
sI928645
g3535
ssI473054
(dp4596
I212050
g3794
sI295853
g4228
sI221074
g4534
ssI219138
(dp4597
I910329
g3679
sI247386
g4301
sI25108
g3837
sI210902
g4009
ssI940003
(dp4598
I924796
g3848
ssI454630
(dp4599
I219867
g3281
ssI222545
(dp4600
I224838
g4288
sI908301
g3714
sI204658
g3897
sI928472
g3270
sI264346
g2298
sI919517
g4595
ssI905296
(dp4601
I242823
g3863
sI208303
g4144
sI238513
g4263
sI233619
g2287
sI248308
g2898
sI240602
g3716
sI924990
g4515
sI905151
g4567
ssI230396
(dp4602
I204804
g2022
ssI270315
(dp4603
I247760
g4584
ssI264530
(dp4604
I41284
g2633
sI48631
g4209
sI238904
g4028
sI203254
g2902
sI29559
g3521
sI36568
g4409
sI215833
g3390
ssI627026
(dp4605
I20558
g2174
ssI223216
(dp4606
I928472
g3269
sI127792
g3432
sI208815
g4248
sI907583
g2609
ssI364529
(dp4607
I174995
g3561
sI929086
g4045
sI164287
g2808
ssI476158
(dp4608
I4807
g3233
sI5676
g4269
sI219087
g4582
sI158450
g3322
sI247386
g4311
sI312188
g3947
ssI483318
(dp4609
I61386
g4577
sI603130
g3684
sI148834
g4080
ssI927733
(dp4610
I916454
g3652
ssI202748
(dp4611
I922725
g3813
sI25134
g2995
sI209679
g3371
ssI930414
(dp4612
I228428
g3787
ssI462847
(dp4613
I809808
g3467
sI372099
g4107
sI295853
g4226
sssS'adj'
p4614
g2014
sb.