ccopy_reg
_reconstructor
p0
(cnetworkx.classes.graph
Graph
p1
c__builtin__
object
p2
Ntp3
Rp4
(dp5
S'node'
p6
(dp7
I578560
(dp8
S'Node Label'
p9
S' Gene'
p10
ssI878595
(dp11
g9
S' Gene'
p12
ssI493579
(dp13
g9
S' Article'
p14
ssI165900
(dp15
g9
S' Domain'
p16
ssI174105
(dp17
g9
S' Family'
p18
ssI931867
(dp19
g9
S' Protein'
p20
ssI930821
(dp21
g9
S' Protein'
p22
ssI581665
(dp23
g9
S' Gene'
p24
ssI888870
(dp25
g9
S' Gene'
p26
ssI227367
(dp27
g9
S' Protein'
p28
ssI919597
(dp29
g9
S' Protein'
p30
ssI927069
(dp31
g9
S' Protein'
p32
ssI227378
(dp33
g9
S' Protein'
p34
ssI227383
(dp35
g9
S' Protein'
p36
ssI927809
(dp37
g9
S' Protein'
p38
ssI219202
(dp39
g9
S' Protein'
p40
ssI479302
(dp41
g9
S' Gene'
p42
ssI782410
(dp43
g9
S' Gene'
p44
ssI331853
(dp45
g9
S' Protein'
p46
ssI247896
(dp47
g9
S' Protein'
p48
ssI927833
(dp49
g9
S' Protein'
p50
ssI454747
(dp51
g9
S' Gene'
p52
ssI335990
(dp53
g9
S' Protein'
p54
ssI30844
(dp55
g9
S' Gene'
p56
ssI254077
(dp57
g9
S' Protein'
p58
ssI4225
(dp59
g9
S' MolecularFunction'
p60
ssI227460
(dp61
g9
S' Protein'
p62
ssI243845
(dp63
g9
S' Protein'
p64
ssI934026
(dp65
g9
S' Protein'
p66
ssI934029
(dp67
g9
S' Protein'
p68
ssI919696
(dp69
g9
S' Protein'
p70
ssI370713
(dp71
g9
S' Protein'
p72
ssI927899
(dp73
g9
S' Protein'
p74
ssI256157
(dp75
g9
S' Protein'
p76
ssI913566
(dp77
g9
S' Protein'
p78
ssI907423
(dp79
g9
S' Protein'
p80
ssI643233
(dp81
g9
S' Article'
p82
ssI530595
(dp83
g9
S' Article'
p84
ssI932004
(dp85
g9
S' Protein'
p86
ssI932005
(dp87
g9
S' Protein'
p88
ssI356519
(dp89
g9
S' Protein'
p90
ssI905391
(dp91
g9
S' Protein'
p92
ssI905394
(dp93
g9
S' Protein'
p94
ssI463029
(dp95
g9
S' Gene'
p96
ssI283086
(dp97
g9
S' Protein'
p98
ssI510138
(dp99
g9
S' Gene'
p100
ssI14527
(dp101
g9
S' BiologicalProcess'
p102
ssI932042
(dp103
g9
S' Protein'
p104
ssI254158
(dp105
g9
S' Protein'
p106
ssI209103
(dp107
g9
S' Protein'
p108
ssI921810
(dp109
g9
S' Protein'
p110
ssI568355
(dp111
g9
S' Gene'
p112
ssI917717
(dp113
g9
S' Protein'
p114
ssI256215
(dp115
g9
S' Protein'
p116
ssI174303
(dp117
g9
S' Domain'
p118
ssI930022
(dp119
g9
S' Protein'
p120
ssI932071
(dp121
g9
S' Protein'
p122
ssI917543
(dp123
g9
S' Protein'
p124
ssI16626
(dp125
g9
S' CellularComponent'
p126
ssI811254
(dp127
g9
S' Gene'
p128
ssI925943
(dp129
g9
S' Protein'
p130
ssI919808
(dp131
g9
S' Protein'
p132
ssI932101
(dp133
g9
S' Protein'
p134
ssI217350
(dp135
g9
S' Article'
p136
ssI403723
(dp137
g9
S' Protein'
p138
ssI366867
(dp139
g9
S' Protein'
p140
ssI260391
(dp141
g9
S' Article'
p142
ssI905266
(dp143
g9
S' Protein'
p144
ssI919856
(dp145
g9
S' Protein'
p146
ssI928050
(dp147
g9
S' Protein'
p148
ssI936245
(dp149
g9
S' Protein'
p150
ssI397623
(dp151
g9
S' Protein'
p152
ssI483722
(dp153
g9
S' Article'
p154
ssI164160
(dp155
g9
S' Domain'
p156
ssI239937
(dp157
g9
S' Article'
p158
ssI41284
(dp159
g9
S' Gene'
p160
ssI923976
(dp161
g9
S' Protein'
p162
ssI919882
(dp163
g9
S' Protein'
p164
ssI239940
(dp165
g9
S' Protein'
p166
ssI932180
(dp167
g9
S' Protein'
p168
ssI338263
(dp169
g9
S' Protein'
p170
ssI520538
(dp171
g9
S' Gene'
p172
ssI936304
(dp173
g9
S' Protein'
p174
ssI233844
(dp175
g9
S' Protein'
p176
ssI911738
(dp177
g9
S' Protein'
p178
ssI149883
(dp179
g9
S' Article'
p180
ssI260477
(dp181
g9
S' Protein'
p182
ssI217835
(dp183
g9
S' Protein'
p184
ssI919942
(dp185
g9
S' Protein'
p186
ssI926090
(dp187
g9
S' Protein'
p188
ssI483724
(dp189
g9
S' Gene'
p190
ssI358799
(dp191
g9
S' Protein'
p192
ssI256401
(dp193
g9
S' Protein'
p194
ssI934294
(dp195
g9
S' Protein'
p196
ssI422295
(dp197
g9
S' Protein'
p198
ssI928153
(dp199
g9
S' Protein'
p200
ssI928154
(dp201
g9
S' Protein'
p202
ssI932258
(dp203
g9
S' Protein'
p204
ssI250291
(dp205
g9
S' Protein'
p206
ssI928191
(dp207
g9
S' Protein'
p208
ssI477634
(dp209
g9
S' Gene'
p210
ssI254414
(dp211
g9
S' Protein'
p212
ssI260560
(dp213
g9
S' Protein'
p214
ssI926161
(dp215
g9
S' Protein'
p216
ssI930259
(dp217
g9
S' Protein'
p218
ssI926165
(dp219
g9
S' Protein'
p220
ssI481750
(dp221
g9
S' Gene'
p222
ssI223708
(dp223
g9
S' Protein'
p224
ssI936413
(dp225
g9
S' Protein'
p226
ssI905694
(dp227
g9
S' Protein'
p228
ssI618978
(dp229
g9
S' Gene'
p230
ssI166996
(dp231
g9
S' Domain'
p232
ssI299514
(dp233
g9
S' Protein'
p234
ssI924159
(dp235
g9
S' Protein'
p236
ssI918016
(dp237
g9
S' Protein'
p238
ssI911876
(dp239
g9
S' Protein'
p240
ssI911882
(dp241
g9
S' Protein'
p242
ssI168463
(dp243
g9
S' ConservedSite'
p244
ssI913942
(dp245
g9
S' Protein'
p246
ssI932378
(dp247
g9
S' Protein'
p248
ssI918046
(dp249
g9
S' Protein'
p250
ssI934437
(dp251
g9
S' Protein'
p252
ssI909867
(dp253
g9
S' Protein'
p254
ssI25134
(dp255
g9
S' Tissue'
p256
ssI909871
(dp257
g9
S' Protein'
p258
ssI932406
(dp259
g9
S' Protein'
p260
ssI930361
(dp261
g9
S' Protein'
p262
ssI926267
(dp263
g9
S' Protein'
p264
ssI924221
(dp265
g9
S' Protein'
p266
ssI920126
(dp267
g9
S' Protein'
p268
ssI582207
(dp269
g9
S' Gene'
p270
ssI905792
(dp271
g9
S' Protein'
p272
ssI209475
(dp273
g9
S' Protein'
p274
ssI913996
(dp275
g9
S' Protein'
p276
ssI25168
(dp277
g9
S' Tissue'
p278
ssI291418
(dp279
g9
S' Organism'
p280
ssI934492
(dp281
g9
S' Protein'
p282
ssI400826
(dp283
g9
S' Protein'
p284
ssI502374
(dp285
g9
S' Gene'
p286
ssI490088
(dp287
g9
S' Gene'
p288
ssI905834
(dp289
g9
S' Protein'
p290
ssI381549
(dp291
g9
S' Article'
p292
ssI936566
(dp293
g9
S' Protein'
p294
ssI25207
(dp295
g9
S' Tissue'
p296
ssI934520
(dp297
g9
S' Protein'
p298
ssI914042
(dp299
g9
S' Protein'
p300
ssI291451
(dp301
g9
S' Tissue'
p302
ssI911999
(dp303
g9
S' Protein'
p304
ssI932487
(dp305
g9
S' Protein'
p306
ssI504456
(dp307
g9
S' Gene'
p308
ssI905666
(dp309
g9
S' Protein'
p310
ssI926350
(dp311
g9
S' Protein'
p312
ssI344722
(dp313
g9
S' Protein'
p314
ssI928406
(dp315
g9
S' Protein'
p316
ssI934554
(dp317
g9
S' Protein'
p318
ssI934557
(dp319
g9
S' Protein'
p320
ssI350880
(dp321
g9
S' Protein'
p322
ssI256673
(dp323
g9
S' Protein'
p324
ssI545445
(dp325
g9
S' Article'
p326
ssI926376
(dp327
g9
S' Protein'
p328
ssI909993
(dp329
g9
S' Protein'
p330
ssI934570
(dp331
g9
S' Protein'
p332
ssI932526
(dp333
g9
S' Protein'
p334
ssI922287
(dp335
g9
S' Protein'
p336
ssI920241
(dp337
g9
S' Protein'
p338
ssI254649
(dp339
g9
S' Protein'
p340
ssI905915
(dp341
g9
S' Protein'
p342
ssI250556
(dp343
g9
S' Protein'
p344
ssI922303
(dp345
g9
S' Protein'
p346
ssI912068
(dp347
g9
S' Protein'
p348
ssI928453
(dp349
g9
S' Protein'
p350
ssI166606
(dp351
g9
S' Domain'
p352
ssI4819
(dp353
g9
S' CellularComponent'
p354
ssI565972
(dp355
g9
S' Gene'
p356
ssI932565
(dp357
g9
S' Protein'
p358
ssI930518
(dp359
g9
S' Protein'
p360
ssI728
(dp361
g9
S' MolecularFunction'
p362
ssI256732
(dp363
g9
S' Protein'
p364
ssI910458
(dp365
g9
S' Protein'
p366
ssI910046
(dp367
g9
S' Protein'
p368
ssI936679
(dp369
g9
S' Protein'
p370
ssI922345
(dp371
g9
S' Protein'
p372
ssI934635
(dp373
g9
S' Protein'
p374
ssI10988
(dp375
g9
S' MolecularFunction'
p376
ssI230126
(dp377
g9
S' Protein'
p378
ssI479987
(dp379
g9
S' Gene'
p380
ssI928517
(dp381
g9
S' Protein'
p382
ssI908417
(dp383
g9
S' Protein'
p384
ssI269065
(dp385
g9
S' Article'
p386
ssI1117
(dp387
g9
S' BiologicalProcess'
p388
ssI809743
(dp389
g9
S' GenomicContext'
p390
ssI934678
(dp391
g9
S' Protein'
p392
ssI133
(dp393
g9
S' BiologicalProcess'
p394
ssI930593
(dp395
g9
S' Protein'
p396
ssI926500
(dp397
g9
S' Protein'
p398
ssI873253
(dp399
g9
S' Gene'
p400
ssI4903
(dp401
g9
S' CellularComponent'
p402
ssI4904
(dp403
g9
S' CellularComponent'
p404
ssI936746
(dp405
g9
S' Protein'
p406
ssI256820
(dp407
g9
S' Protein'
p408
ssI936757
(dp409
g9
S' Protein'
p410
ssI924473
(dp411
g9
S' Protein'
p412
ssI826
(dp413
g9
S' BiologicalProcess'
p414
ssI291643
(dp415
g9
S' Protein'
p416
ssI936767
(dp417
g9
S' Protein'
p418
ssI910145
(dp419
g9
S' Protein'
p420
ssI248642
(dp421
g9
S' Protein'
p422
ssI166728
(dp423
g9
S' Domain'
p424
ssI910157
(dp425
g9
S' Protein'
p426
ssI809813
(dp427
g9
S' GenomicContext'
p428
ssI4951
(dp429
g9
S' CellularComponent'
p430
ssI39771
(dp431
g9
S' Gene'
p432
ssI4956
(dp433
g9
S' CellularComponent'
p434
ssI906042
(dp435
g9
S' Protein'
p436
ssI926560
(dp437
g9
S' Protein'
p438
ssI328547
(dp439
g9
S' Protein'
p440
ssI322404
(dp441
g9
S' Protein'
p442
ssI932709
(dp443
g9
S' Protein'
p444
ssI492395
(dp445
g9
S' Gene'
p446
ssI256876
(dp447
g9
S' Protein'
p448
ssI906095
(dp449
g9
S' Protein'
p450
ssI934781
(dp451
g9
S' Protein'
p452
ssI265086
(dp453
g9
S' Article'
p454
ssI260993
(dp455
g9
S' Protein'
p456
ssI222084
(dp457
g9
S' Protein'
p458
ssI363399
(dp459
g9
S' Protein'
p460
ssI914312
(dp461
g9
S' Protein'
p462
ssI222089
(dp463
g9
S' Protein'
p464
ssI936087
(dp465
g9
S' Protein'
p466
ssI387981
(dp467
g9
S' Protein'
p468
ssI930711
(dp469
g9
S' Protein'
p470
ssI930712
(dp471
g9
S' Protein'
p472
ssI224156
(dp473
g9
S' Protein'
p474
ssI928672
(dp475
g9
S' Protein'
p476
ssI455585
(dp477
g9
S' Gene'
p478
ssI455586
(dp479
g9
S' Gene'
p480
ssI328613
(dp481
g9
S' Protein'
p482
ssI910246
(dp483
g9
S' Protein'
p484
ssI931315
(dp485
g9
S' Protein'
p486
ssI930741
(dp487
g9
S' Protein'
p488
ssI934840
(dp489
g9
S' Protein'
p490
ssI256957
(dp491
g9
S' Protein'
p492
ssI932799
(dp493
g9
S' Protein'
p494
ssI350369
(dp495
g9
S' Protein'
p496
ssI922572
(dp497
g9
S' Protein'
p498
ssI465059
(dp499
g9
S' Gene'
p500
ssI261079
(dp501
g9
S' Protein'
p502
ssI574429
(dp503
g9
S' Gene'
p504
ssI240608
(dp505
g9
S' Protein'
p506
ssI207847
(dp507
g9
S' Article'
p508
ssI207848
(dp509
g9
S' Protein'
p510
ssI3053
(dp511
g9
S' MolecularFunction'
p512
ssI3055
(dp513
g9
S' MolecularFunction'
p514
ssI7163
(dp515
g9
S' MolecularFunction'
p516
ssI912384
(dp517
g9
S' Protein'
p518
ssI232451
(dp519
g9
S' Protein'
p520
ssI377861
(dp521
g9
S' Protein'
p522
ssI906248
(dp523
g9
S' Protein'
p524
ssI916491
(dp525
g9
S' Protein'
p526
ssI910348
(dp527
g9
S' Protein'
p528
ssI353297
(dp529
g9
S' Protein'
p530
ssI257042
(dp531
g9
S' Protein'
p532
ssI935086
(dp533
g9
S' Protein'
p534
ssI3094
(dp535
g9
S' MolecularFunction'
p536
ssI359448
(dp537
g9
S' Protein'
p538
ssI211993
(dp539
g9
S' Protein'
p540
ssI322592
(dp541
g9
S' Protein'
p542
ssI257059
(dp543
g9
S' Protein'
p544
ssI926756
(dp545
g9
S' Protein'
p546
ssI934965
(dp547
g9
S' Protein'
p548
ssI929474
(dp549
g9
S' Protein'
p550
ssI914490
(dp551
g9
S' Protein'
p552
ssI254133
(dp553
g9
S' Protein'
p554
ssI257095
(dp555
g9
S' Protein'
p556
ssI906314
(dp557
g9
S' Protein'
p558
ssI932941
(dp559
g9
S' Protein'
p560
ssI261204
(dp561
g9
S' Protein'
p562
ssI7253
(dp563
g9
S' MolecularFunction'
p564
ssI934998
(dp565
g9
S' Protein'
p566
ssI877661
(dp567
g9
S' Gene'
p568
ssI910431
(dp569
g9
S' Protein'
p570
ssI932965
(dp571
g9
S' Protein'
p572
ssI932976
(dp573
g9
S' Protein'
p574
ssI232561
(dp575
g9
S' Article'
p576
ssI931347
(dp577
g9
S' Protein'
p578
ssI926836
(dp579
g9
S' Protein'
p580
ssI257143
(dp581
g9
S' Protein'
p582
ssI912506
(dp583
g9
S' Protein'
p584
ssI932987
(dp585
g9
S' Protein'
p586
ssI853117
(dp587
g9
S' Gene'
p588
ssI164992
(dp589
g9
S' Domain'
p590
ssI257153
(dp591
g9
S' Protein'
p592
ssI431241
(dp593
g9
S' Protein'
p594
ssI240779
(dp595
g9
S' Protein'
p596
ssI926862
(dp597
g9
S' Protein'
p598
ssI203922
(dp599
g9
S' Protein'
p600
ssI910485
(dp601
g9
S' Protein'
p602
ssI255133
(dp603
g9
S' Protein'
p604
ssI171168
(dp605
g9
S' Domain'
p606
ssI906402
(dp607
g9
S' Protein'
p608
ssI212131
(dp609
g9
S' Article'
p610
ssI916654
(dp611
g9
S' Protein'
p612
ssI5299
(dp613
g9
S' BiologicalProcess'
p614
ssI922806
(dp615
g9
S' Protein'
p616
ssI253111
(dp617
g9
S' Protein'
p618
ssI914618
(dp619
g9
S' Protein'
p620
ssI935100
(dp621
g9
S' Protein'
p622
ssI42174
(dp623
g9
S' Gene'
p624
ssI935107
(dp625
g9
S' Protein'
p626
ssI931013
(dp627
g9
S' Protein'
p628
ssI246993
(dp629
g9
S' Protein'
p630
ssI920787
(dp631
g9
S' Protein'
p632
ssI476065
(dp633
g9
S' Gene'
p634
ssI257243
(dp635
g9
S' Protein'
p636
ssI210141
(dp637
g9
S' Protein'
p638
ssI910562
(dp639
g9
S' Protein'
p640
ssI503017
(dp641
g9
S' Gene'
p642
ssI284883
(dp643
g9
S' Protein'
p644
ssI257272
(dp645
g9
S' Protein'
p646
ssI339195
(dp647
g9
S' Protein'
p648
ssI918785
(dp649
g9
S' Protein'
p650
ssI587027
(dp651
g9
S' Article'
p652
ssI935196
(dp653
g9
S' Protein'
p654
ssI410909
(dp655
g9
S' Protein'
p656
ssI933152
(dp657
g9
S' Protein'
p658
ssI927012
(dp659
g9
S' Protein'
p660
ssI507176
(dp661
g9
S' Gene'
p662
ssI933767
(dp663
g9
S' Protein'
p664
ssI916781
(dp665
g9
S' Protein'
p666
ssI305032
(dp667
g9
S' Protein'
p668
ssI910645
(dp669
g9
S' Protein'
p670
ssI912265
(dp671
g9
S' Protein'
p672
ssI931135
(dp673
g9
S' Protein'
p674
ssI466243
(dp675
g9
S' Gene'
p676
ssI918852
(dp677
g9
S' Protein'
p678
ssI928310
(dp679
g9
S' Protein'
p680
ssI505160
(dp681
g9
S' Gene'
p682
ssI906125
(dp683
g9
S' Protein'
p684
ssI247126
(dp685
g9
S' Protein'
p686
ssI908637
(dp687
g9
S' Protein'
p688
ssI165227
(dp689
g9
S' Domain'
p690
ssI3436
(dp691
g9
S' MolecularFunction'
p692
ssI907837
(dp693
g9
S' Protein'
p694
ssI456048
(dp695
g9
S' Gene'
p696
ssI189812
(dp697
g9
S' Protein'
p698
ssI931191
(dp699
g9
S' Protein'
p700
ssI376192
(dp701
g9
S' Article'
p702
ssI464260
(dp703
g9
S' Gene'
p704
ssI218507
(dp705
g9
S' Protein'
p706
ssI914830
(dp707
g9
S' Protein'
p708
ssI212377
(dp709
g9
S' Protein'
p710
ssI396699
(dp711
g9
S' Protein'
p712
ssI363936
(dp713
g9
S' Protein'
p714
ssI931249
(dp715
g9
S' Protein'
p716
ssI388538
(dp717
g9
S' Protein'
p718
ssI464315
(dp719
g9
S' Gene'
p720
ssI232894
(dp721
g9
S' Protein'
p722
ssI773574
(dp723
g9
S' Gene'
p724
ssI773575
(dp725
g9
S' Gene'
p726
ssI918985
(dp727
g9
S' Protein'
p728
ssI255439
(dp729
g9
S' Protein'
p730
ssI908752
(dp731
g9
S' Protein'
p732
ssI925143
(dp733
g9
S' Protein'
p734
ssI218585
(dp735
g9
S' Protein'
p736
ssI927196
(dp737
g9
S' Protein'
p738
ssI472542
(dp739
g9
S' Gene'
p740
ssI392680
(dp741
g9
S' Protein'
p742
ssI257519
(dp743
g9
S' Protein'
p744
ssI929267
(dp745
g9
S' Protein'
p746
ssI925173
(dp747
g9
S' Protein'
p748
ssI929275
(dp749
g9
S' Protein'
p750
ssI916990
(dp751
g9
S' Protein'
p752
ssI916992
(dp753
g9
S' Protein'
p754
ssI906756
(dp755
g9
S' Protein'
p756
ssI910858
(dp757
g9
S' Protein'
p758
ssI927243
(dp759
g9
S' Protein'
p760
ssI923151
(dp761
g9
S' Protein'
p762
ssI921106
(dp763
g9
S' Protein'
p764
ssI910867
(dp765
g9
S' Protein'
p766
ssI919061
(dp767
g9
S' Protein'
p768
ssI175639
(dp769
g9
S' Family'
p770
ssI910872
(dp771
g9
S' Protein'
p772
ssI501282
(dp773
g9
S' Gene'
p774
ssI927268
(dp775
g9
S' Protein'
p776
ssI927269
(dp777
g9
S' Protein'
p778
ssI13864
(dp779
g9
S' MolecularFunction'
p780
ssI914995
(dp781
g9
S' Protein'
p782
ssI630324
(dp783
g9
S' Article'
p784
ssI906806
(dp785
g9
S' Protein'
p786
ssI931383
(dp787
g9
S' Protein'
p788
ssI224830
(dp789
g9
S' Protein'
p790
ssI927296
(dp791
g9
S' Protein'
p792
ssI910913
(dp793
g9
S' Protein'
p794
ssI267
(dp795
g9
S' BiologicalProcess'
p796
ssI245321
(dp797
g9
S' Protein'
p798
ssI175692
(dp799
g9
S' Domain'
p800
ssI681550
(dp801
g9
S' Article'
p802
ssI138834
(dp803
g9
S' Article'
p804
ssI931413
(dp805
g9
S' Protein'
p806
ssI925272
(dp807
g9
S' Protein'
p808
ssI247386
(dp809
g9
S' Article'
p810
ssI908902
(dp811
g9
S' Protein'
p812
ssI927334
(dp813
g9
S' Protein'
p814
ssI398953
(dp815
g9
S' Protein'
p816
ssI921194
(dp817
g9
S' Protein'
p818
ssI935532
(dp819
g9
S' Protein'
p820
ssI933488
(dp821
g9
S' Protein'
p822
ssI208147
(dp823
g9
S' Protein'
p824
ssI298616
(dp825
g9
S' Protein'
p826
ssI257658
(dp827
g9
S' Protein'
p828
ssI925315
(dp829
g9
S' Protein'
p830
ssI931467
(dp831
g9
S' Protein'
p832
ssI249484
(dp833
g9
S' Protein'
p834
ssI25197
(dp835
g9
S' Tissue'
p836
ssI908947
(dp837
g9
S' Protein'
p838
ssI20119
(dp839
g9
S' BiologicalProcess'
p840
ssI904861
(dp841
g9
S' Protein'
p842
ssI904862
(dp843
g9
S' Protein'
p844
ssI929439
(dp845
g9
S' Protein'
p846
ssI931488
(dp847
g9
S' Protein'
p848
ssI919202
(dp849
g9
S' Protein'
p850
ssI255653
(dp851
g9
S' Protein'
p852
ssI932807
(dp853
g9
S' Protein'
p854
ssI921262
(dp855
g9
S' Protein'
p856
ssI906929
(dp857
g9
S' Protein'
p858
ssI931510
(dp859
g9
S' Protein'
p860
ssI247482
(dp861
g9
S' Protein'
p862
ssI61386
(dp863
g9
S' Gene'
p864
ssI217806
(dp865
g9
S' Protein'
p866
ssI913090
(dp867
g9
S' Protein'
p868
ssI655043
(dp869
g9
S' Article'
p870
ssI929476
(dp871
g9
S' Protein'
p872
ssI932470
(dp873
g9
S' Protein'
p874
ssI253643
(dp875
g9
S' Protein'
p876
ssI931539
(dp877
g9
S' Protein'
p878
ssI904916
(dp879
g9
S' Protein'
p880
ssI554958
(dp881
g9
S' Gene'
p882
ssI911064
(dp883
g9
S' Protein'
p884
ssI931551
(dp885
g9
S' Protein'
p886
ssI220896
(dp887
g9
S' Protein'
p888
ssI919273
(dp889
g9
S' Protein'
p890
ssI906987
(dp891
g9
S' Protein'
p892
ssI247535
(dp893
g9
S' Protein'
p894
ssI925425
(dp895
g9
S' Protein'
p896
ssI294650
(dp897
g9
S' Protein'
p898
ssI921342
(dp899
g9
S' Protein'
p900
ssI907009
(dp901
g9
S' Protein'
p902
ssI239362
(dp903
g9
S' Protein'
p904
ssI253708
(dp905
g9
S' Protein'
p906
ssI904973
(dp907
g9
S' Protein'
p908
ssI909072
(dp909
g9
S' Protein'
p910
ssI249619
(dp911
g9
S' Protein'
p912
ssI249623
(dp913
g9
S' Protein'
p914
ssI245548
(dp915
g9
S' Protein'
p916
ssI366388
(dp917
g9
S' Protein'
p918
ssI42807
(dp919
g9
S' Gene'
p920
ssI935737
(dp921
g9
S' Protein'
p922
ssI20283
(dp923
g9
S' BiologicalProcess'
p924
ssI911166
(dp925
g9
S' Protein'
p926
ssI907106
(dp927
g9
S' Protein'
p928
ssI28518
(dp929
g9
S' Gene'
p930
ssI933737
(dp931
g9
S' Protein'
p932
ssI925553
(dp933
g9
S' Protein'
p934
ssI18293
(dp935
g9
S' BiologicalProcess'
p936
ssI857981
(dp937
g9
S' GenomicContext'
p938
ssI216963
(dp939
g9
S' Protein'
p940
ssI6465
(dp941
g9
S' BiologicalProcess'
p942
ssI292744
(dp943
g9
S' Protein'
p944
ssI525975
(dp945
g9
S' Article'
p946
ssI921486
(dp947
g9
S' Protein'
p948
ssI364432
(dp949
g9
S' Protein'
p950
ssI905105
(dp951
g9
S' Protein'
p952
ssI221074
(dp953
g9
S' Article'
p954
ssI489365
(dp955
g9
S' Gene'
p956
ssI926020
(dp957
g9
S' Protein'
p958
ssI673692
(dp959
g9
S' Article'
p960
ssI931748
(dp961
g9
S' Protein'
p962
ssI925605
(dp963
g9
S' Protein'
p964
ssI925612
(dp965
g9
S' Protein'
p966
ssI499629
(dp967
g9
S' Gene'
p968
ssI204104
(dp969
g9
S' Protein'
p970
ssI905138
(dp971
g9
S' Protein'
p972
ssI262070
(dp973
g9
S' Protein'
p974
ssI211813
(dp975
g9
S' Protein'
p976
ssI239544
(dp977
g9
S' Article'
p978
ssI18274
(dp979
g9
S' BiologicalProcess'
p980
ssI911294
(dp981
g9
S' Protein'
p982
ssI251843
(dp983
g9
S' Protein'
p984
ssI905157
(dp985
g9
S' Protein'
p986
ssI817098
(dp987
g9
S' Gene'
p988
ssI239566
(dp989
g9
S' Protein'
p990
ssI997333
(dp991
g9
S' Pathway'
p992
ssI913366
(dp993
g9
S' Protein'
p994
ssI225243
(dp995
g9
S' Protein'
p996
ssI927709
(dp997
g9
S' Protein'
p998
ssI454632
(dp999
g9
S' Pathway'
p1000
ssI403438
(dp1001
g9
S' Protein'
p1002
ssI931831
(dp1003
g9
S' Protein'
p1004
ssI929787
(dp1005
g9
S' Protein'
p1006
ssI230058
(dp1007
g9
S' Protein'
p1008
ssI477182
(dp1009
g9
S' Gene'
p1010
sssS'graph'
p1011
(dp1012
sS'edge'
p1013
(dp1014
I912384
(dp1015
I932042
(dp1016
S'Edge Probability'
p1017
F0.132597
ssI247126
(dp1018
g1017
F0.115279
ssI936757
(dp1019
g1017
F0.120111
ssI928310
(dp1020
g1017
F0.093685
ssI932799
(dp1021
g1017
F0.119633
sssI878595
(dp1022
I61386
(dp1023
g1017
F0.031479
ssI809743
(dp1024
g1017
F0.329906
sssI493579
(dp1025
I376192
(dp1026
g1017
F0.172085
sssI165900
(dp1027
I240608
(dp1028
g1017
F0.240244
sssI370713
(dp1029
I930518
(dp1030
g1017
F0.965936
ssI260391
(dp1031
g1017
F0.031153
sssI931867
(dp1032
I933152
(dp1033
g1017
F0.207178
ssI931488
(dp1034
g1017
F0.155949
ssI935107
(dp1035
g1017
F0.17557
ssI932101
(dp1036
g1017
F0.132023
ssI936746
(dp1037
g1017
F0.10808
ssI366388
(dp1038
g1017
F0.111929
ssI247126
(dp1039
g1017
F0.093312
ssI934520
(dp1040
g1017
F0.206832
ssI911738
(dp1041
g1017
F0.115232
ssI932987
(dp1042
g1017
F0.218844
ssI250556
(dp1043
g1017
F0.094012
sssI377861
(dp1044
I4819
(dp1045
g1017
F0.150814
sssI581665
(dp1046
I42174
(dp1047
g1017
F0.041509
sssI888870
(dp1048
I291418
(dp1049
g1017
F0.03585
ssI565972
(dp1050
g1017
F0.716767
ssI479302
(dp1051
g1017
F0.69644
sssI227367
(dp1052
I261079
(dp1053
g1017
F0.207141
sssI919597
(dp1054
I919856
(dp1055
g1017
F0.193765
ssI913090
(dp1056
g1017
F0.120255
ssI227383
(dp1057
g1017
F0.124181
sssI927069
(dp1058
I910645
(dp1059
g1017
F0.491537
sssI227378
(dp1060
I919696
(dp1061
g1017
F0.345726
sssI227383
(dp1062
I920241
(dp1063
g1017
F0.311951
ssI910858
(dp1064
g1017
F0.163475
ssI919597
g1057
sI919942
(dp1065
g1017
F0.164029
ssI262070
(dp1066
g1017
F0.15923
sssI927809
(dp1067
I921342
(dp1068
g1017
F0.246216
ssI932258
(dp1069
g1017
F0.128066
ssI911882
(dp1070
g1017
F0.170249
ssI909867
(dp1071
g1017
F0.095309
ssI910157
(dp1072
g1017
F0.17458
ssI919061
(dp1073
g1017
F0.287818
ssI934570
(dp1074
g1017
F0.148709
ssI918046
(dp1075
g1017
F0.119974
sssI219202
(dp1076
I216963
(dp1077
g1017
F0.163932
ssI260391
(dp1078
g1017
F0.043611
ssI222089
(dp1079
g1017
F0.097457
ssI61386
(dp1080
g1017
F0.030138
ssI936757
(dp1081
g1017
F0.168595
ssI934520
(dp1082
g1017
F0.13626
ssI911738
(dp1083
g1017
F0.098278
ssI291451
(dp1084
g1017
F0.225107
ssI934557
(dp1085
g1017
F0.14441
sssI479302
(dp1086
I565972
(dp1087
g1017
F0.716767
ssI888870
g1051
ssI782410
(dp1088
I809813
(dp1089
g1017
F0.394722
sssI331853
(dp1090
I174303
(dp1091
g1017
F0.210865
sssI247896
(dp1092
I914490
(dp1093
g1017
F0.240418
sssI927833
(dp1094
I928672
(dp1095
g1017
F0.113107
ssI930022
(dp1096
g1017
F0.155604
ssI911882
(dp1097
g1017
F0.172102
ssI910157
(dp1098
g1017
F0.154432
ssI906125
(dp1099
g1017
F0.166742
ssI61386
(dp1100
g1017
F0.030138
sssI454747
(dp1101
I18274
(dp1102
g1017
F0.474643
sssI335990
(dp1103
I165227
(dp1104
g1017
F0.303016
ssI3055
(dp1105
g1017
F0.258014
sssI30844
(dp1106
I545445
(dp1107
g1017
F0.333395
sssI254077
(dp1108
I927012
(dp1109
g1017
F0.116632
ssI224156
(dp1110
g1017
F0.226376
ssI25134
(dp1111
g1017
F0.165751
sssI4225
(dp1112
I339195
(dp1113
g1017
F0.53744
sssI227460
(dp1114
I928153
(dp1115
g1017
F0.560251
ssI247386
(dp1116
g1017
F0.037136
ssI267
(dp1117
g1017
F0.277272
sssI243845
(dp1118
I928453
(dp1119
g1017
F0.307408
ssI912265
(dp1120
g1017
F0.100378
ssI930259
(dp1121
g1017
F0.490494
ssI928154
(dp1122
g1017
F0.323058
ssI914618
(dp1123
g1017
F0.221538
ssI211813
(dp1124
g1017
F0.094825
sssI934026
(dp1125
I918046
(dp1126
g1017
F0.166196
ssI931135
(dp1127
g1017
F0.111797
sssI934029
(dp1128
I933152
(dp1129
g1017
F0.143305
ssI934965
(dp1130
g1017
F0.377906
ssI936566
(dp1131
g1017
F0.224687
ssI908637
(dp1132
g1017
F0.249402
sssI919696
(dp1133
I907009
(dp1134
g1017
F0.112628
ssI227378
g1061
sI928050
(dp1135
g1017
F0.131331
ssI262070
(dp1136
g1017
F0.168243
ssI909871
(dp1137
g1017
F0.198939
sssI174105
(dp1138
I222089
(dp1139
g1017
F0.615071
sssI927899
(dp1140
I61386
(dp1141
g1017
F0.030138
ssI918852
(dp1142
g1017
F0.12937
ssI262070
(dp1143
g1017
F0.513175
ssI904862
(dp1144
g1017
F0.138853
sssI256157
(dp1145
I928406
(dp1146
g1017
F0.152704
ssI933737
(dp1147
g1017
F0.100947
ssI905266
(dp1148
g1017
F0.141365
ssI932470
(dp1149
g1017
F0.095911
ssI247482
(dp1150
g1017
F0.172651
ssI250556
(dp1151
g1017
F0.111244
ssI932799
(dp1152
g1017
F0.091467
sssI913566
(dp1153
I925425
(dp1154
g1017
F0.116359
ssI930259
(dp1155
g1017
F0.150542
ssI911999
(dp1156
g1017
F0.196509
sssI907423
(dp1157
I256673
(dp1158
g1017
F0.098349
ssI61386
(dp1159
g1017
F0.030138
ssI922303
(dp1160
g1017
F0.258834
sssI643233
(dp1161
I456048
(dp1162
g1017
F0.37393
sssI530595
(dp1163
I455585
(dp1164
g1017
F0.270057
sssI932004
(dp1165
I921486
(dp1166
g1017
F0.328609
ssI931249
(dp1167
g1017
F0.165258
ssI920787
(dp1168
g1017
F0.12577
ssI932180
(dp1169
g1017
F0.188446
ssI936245
(dp1170
g1017
F0.131476
ssI934678
(dp1171
g1017
F0.220515
ssI931831
(dp1172
g1017
F0.11062
ssI935737
(dp1173
g1017
F0.290727
ssI934492
(dp1174
g1017
F0.208366
ssI936767
(dp1175
g1017
F0.296514
sssI932005
(dp1176
I61386
(dp1177
g1017
F0.030138
ssI926165
(dp1178
g1017
F0.232735
sssI356519
(dp1179
I7253
(dp1180
g1017
F0.161315
sssI905391
(dp1181
I260993
(dp1182
g1017
F0.147994
ssI239362
(dp1183
g1017
F0.326435
ssI925315
(dp1184
g1017
F0.131634
ssI906987
(dp1185
g1017
F0.43471
ssI912265
(dp1186
g1017
F0.467988
ssI919882
(dp1187
g1017
F0.098965
ssI916491
(dp1188
g1017
F0.142436
ssI921810
(dp1189
g1017
F0.418486
ssI928154
(dp1190
g1017
F0.441439
sssI905394
(dp1191
I932965
(dp1192
g1017
F0.115277
ssI932487
(dp1193
g1017
F0.128909
ssI222089
(dp1194
g1017
F0.404359
ssI250291
(dp1195
g1017
F0.137025
ssI931347
(dp1196
g1017
F0.137814
ssI262070
(dp1197
g1017
F0.118963
ssI294650
(dp1198
g1017
F0.109985
ssI256957
(dp1199
g1017
F0.422721
ssI905157
(dp1200
g1017
F0.386008
sssI463029
(dp1201
I239544
(dp1202
g1017
F0.095268
ssI221074
(dp1203
g1017
F0.036466
ssI42807
(dp1204
g1017
F0.606287
ssI217350
(dp1205
g1017
F0.050219
ssI260391
(dp1206
g1017
F0.036487
sssI283086
(dp1207
I920241
(dp1208
g1017
F0.933033
ssI4819
(dp1209
g1017
F0.223047
sssI510138
(dp1210
I4819
(dp1211
g1017
F0.203488
sssI14527
(dp1212
I338263
(dp1213
g1017
F0.30723
sssI932042
(dp1214
I912384
g1016
sI248642
(dp1215
g1017
F0.177926
ssI222089
(dp1216
g1017
F0.114075
ssI61386
(dp1217
g1017
F0.030138
ssI932526
(dp1218
g1017
F0.103737
ssI932976
(dp1219
g1017
F0.102317
ssI926161
(dp1220
g1017
F0.120899
ssI256820
(dp1221
g1017
F0.09643
ssI247126
(dp1222
g1017
F0.109753
ssI932378
(dp1223
g1017
F0.24425
sssI254158
(dp1224
I260993
(dp1225
g1017
F0.424786
sssI209103
(dp1226
I926862
(dp1227
g1017
F0.173746
ssI927296
(dp1228
g1017
F0.201387
ssI166606
(dp1229
g1017
F0.403568
ssI928406
(dp1230
g1017
F0.633688
ssI904973
(dp1231
g1017
F0.187338
sssI921810
(dp1232
I930361
(dp1233
g1017
F0.519844
ssI230058
(dp1234
g1017
F0.135938
ssI925612
(dp1235
g1017
F0.274979
ssI918852
(dp1236
g1017
F0.102084
ssI905391
g1189
ssI257059
(dp1237
I220896
(dp1238
g1017
F0.16081
ssI905266
(dp1239
g1017
F0.123536
ssI930022
(dp1240
g1017
F0.108464
sssI917717
(dp1241
I224156
(dp1242
g1017
F0.223493
sssI256215
(dp1243
I910645
(dp1244
g1017
F0.151464
sssI174303
(dp1245
I431241
(dp1246
g1017
F0.206634
ssI245548
(dp1247
g1017
F0.287747
ssI331853
g1091
sI232894
(dp1248
g1017
F0.311859
ssI358799
(dp1249
g1017
F0.206634
sssI930022
(dp1250
I220896
(dp1251
g1017
F0.172908
ssI257059
g1240
sI905105
(dp1252
g1017
F0.12473
ssI905266
(dp1253
g1017
F0.156262
ssI284883
(dp1254
g1017
F0.140555
ssI928406
(dp1255
g1017
F0.119868
ssI927833
g1096
ssI932071
(dp1256
I216963
(dp1257
g1017
F0.098049
ssI936679
(dp1258
g1017
F0.12338
ssI256876
(dp1259
g1017
F0.117017
ssI936245
(dp1260
g1017
F0.117086
ssI931191
(dp1261
g1017
F0.114138
ssI932378
(dp1262
g1017
F0.129959
ssI932987
(dp1263
g1017
F0.116887
sssI917543
(dp1264
I257095
(dp1265
g1017
F0.153207
ssI932487
(dp1266
g1017
F0.214787
ssI930741
(dp1267
g1017
F0.44485
ssI257143
(dp1268
g1017
F0.222878
ssI359448
(dp1269
g1017
F0.933033
ssI924221
(dp1270
g1017
F0.542194
sssI16626
(dp1271
I338263
(dp1272
g1017
F0.253404
sssI811254
(dp1273
I809813
(dp1274
g1017
F0.35117
sssI925943
(dp1275
I61386
(dp1276
g1017
F0.030138
ssI262070
(dp1277
g1017
F0.122859
sssI919808
(dp1278
I914830
(dp1279
g1017
F0.192701
sssI932101
(dp1280
I926500
(dp1281
g1017
F0.129336
ssI933767
(dp1282
g1017
F0.165474
ssI253708
(dp1283
g1017
F0.129272
ssI61386
(dp1284
g1017
F0.030138
ssI256876
(dp1285
g1017
F0.128261
ssI933488
(dp1286
g1017
F0.214564
ssI257042
(dp1287
g1017
F0.109552
ssI366388
(dp1288
g1017
F0.106416
ssI936245
(dp1289
g1017
F0.152767
ssI931748
(dp1290
g1017
F0.111389
ssI932378
(dp1291
g1017
F0.136169
ssI931867
g1036
sI935196
(dp1292
g1017
F0.139986
ssI910645
(dp1293
g1017
F0.185913
sssI217350
(dp1294
I465059
(dp1295
g1017
F0.049631
ssI463029
g1205
ssI403723
(dp1296
I42174
(dp1297
g1017
F0.027459
sssI366867
(dp1298
I20283
(dp1299
g1017
F0.400079
sssI260391
(dp1300
I322592
(dp1301
g1017
F0.031153
ssI455585
(dp1302
g1017
F0.028519
ssI219202
g1078
sI249623
(dp1303
g1017
F0.043611
ssI239566
(dp1304
g1017
F0.043611
ssI463029
g1206
sI481750
(dp1305
g1017
F0.037552
ssI254649
(dp1306
g1017
F0.044504
ssI359448
(dp1307
g1017
F0.032252
ssI370713
g1031
sI250556
(dp1308
g1017
F0.044504
ssI220896
(dp1309
g1017
F0.042511
sssI905266
(dp1310
I911882
(dp1311
g1017
F0.158482
ssI257059
g1239
sI256157
g1148
sI930022
g1253
ssI919856
(dp1312
I930259
(dp1313
g1017
F0.114875
ssI904916
(dp1314
g1017
F0.113371
ssI919597
g1055
ssI928050
(dp1315
I905666
(dp1316
g1017
F0.151401
ssI929476
(dp1317
g1017
F0.246114
ssI905157
(dp1318
g1017
F0.505444
ssI919696
g1135
sI905138
(dp1319
g1017
F0.260061
ssI927709
(dp1320
g1017
F0.230759
ssI904862
(dp1321
g1017
F0.305984
sssI936245
(dp1322
I933152
(dp1323
g1017
F0.186415
ssI932004
g1170
sI932101
g1289
sI932071
g1260
sI249484
(dp1324
g1017
F0.107931
ssI256876
(dp1325
g1017
F0.168058
ssI932565
(dp1326
g1017
F0.122888
ssI932406
(dp1327
g1017
F0.202701
ssI936087
(dp1328
g1017
F0.146705
ssI934520
(dp1329
g1017
F0.225739
ssI926020
(dp1330
g1017
F0.104727
ssI934557
(dp1331
g1017
F0.165564
sssI397623
(dp1332
I42174
(dp1333
g1017
F0.027459
sssI483722
(dp1334
I483724
(dp1335
g1017
F0.408469
sssI164160
(dp1336
I246993
(dp1337
g1017
F0.336654
ssI388538
(dp1338
g1017
F0.252572
sssI239937
(dp1339
I477634
(dp1340
g1017
F0.098716
ssI464315
(dp1341
g1017
F0.089292
ssI464260
(dp1342
g1017
F0.096364
sssI239940
(dp1343
I25168
(dp1344
g1017
F0.188446
ssI932976
(dp1345
g1017
F0.172192
ssI253708
(dp1346
g1017
F0.10925
ssI454632
(dp1347
g1017
F0.475683
ssI265086
(dp1348
g1017
F0.092755
sssI923976
(dp1349
I930518
(dp1350
g1017
F0.314711
sssI919882
(dp1351
I61386
(dp1352
g1017
F0.030138
ssI926350
(dp1353
g1017
F0.472157
ssI905391
g1187
sI911064
(dp1354
g1017
F0.12719
ssI914995
(dp1355
g1017
F0.120856
ssI910485
(dp1356
g1017
F0.159412
ssI257272
(dp1357
g1017
F0.090171
ssI907837
(dp1358
g1017
F0.115218
sssI932180
(dp1359
I932987
(dp1360
g1017
F0.154548
ssI932004
g1169
sI931539
(dp1361
g1017
F0.094554
sssI338263
(dp1362
I61386
(dp1363
g1017
F0.021096
ssI16626
g1272
sI247386
(dp1364
g1017
F0.028174
ssI14527
g1213
ssI520538
(dp1365
I247386
(dp1366
g1017
F0.041655
ssI4819
(dp1367
g1017
F0.195402
sssI936304
(dp1368
I914042
(dp1369
g1017
F0.134859
ssI934554
(dp1370
g1017
F0.279283
ssI910046
(dp1371
g1017
F0.306533
ssI936679
(dp1372
g1017
F0.170028
sssI233844
(dp1373
I239544
(dp1374
g1017
F0.117355
ssI20283
(dp1375
g1017
F0.579822
ssI175639
(dp1376
g1017
F0.371935
ssI4951
(dp1377
g1017
F0.32469
sssI911738
(dp1378
I933152
(dp1379
g1017
F0.100969
ssI219202
g1083
sI907106
(dp1380
g1017
F0.099193
ssI910562
(dp1381
g1017
F0.142439
ssI926350
(dp1382
g1017
F0.115791
ssI933488
(dp1383
g1017
F0.143841
ssI936757
(dp1384
g1017
F0.125464
ssI931191
(dp1385
g1017
F0.106888
ssI934554
(dp1386
g1017
F0.109114
ssI931867
g1041
sI928154
(dp1387
g1017
F0.307354
ssI920126
(dp1388
g1017
F0.124619
ssI932799
(dp1389
g1017
F0.121398
sssI149883
(dp1390
I189812
(dp1391
g1017
F0.553608
sssI260477
(dp1392
I910348
(dp1393
g1017
F0.41579
sssI934635
(dp1394
I934570
(dp1395
g1017
F0.290239
ssI918046
(dp1396
g1017
F0.161373
sssI919942
(dp1397
I918785
(dp1398
g1017
F0.329615
ssI61386
(dp1399
g1017
F0.030138
ssI930259
(dp1400
g1017
F0.086644
ssI922806
(dp1401
g1017
F0.142468
ssI227383
g1065
sI924159
(dp1402
g1017
F0.094412
sssI926090
(dp1403
I216963
(dp1404
g1017
F0.14582
ssI61386
(dp1405
g1017
F0.030138
ssI256876
(dp1406
g1017
F0.114804
ssI934557
(dp1407
g1017
F0.124949
ssI932976
(dp1408
g1017
F0.099393
ssI931539
(dp1409
g1017
F0.144034
ssI932470
(dp1410
g1017
F0.113722
ssI934520
(dp1411
g1017
F0.143087
ssI914042
(dp1412
g1017
F0.196853
ssI932987
(dp1413
g1017
F0.206028
ssI934554
(dp1414
g1017
F0.208765
sssI483724
(dp1415
I483722
g1335
sI655043
(dp1416
g1017
F0.452045
ssI61386
(dp1417
g1017
F0.031479
sssI358799
(dp1418
I61386
(dp1419
g1017
F0.021096
ssI174303
g1249
ssI256401
(dp1420
I926165
(dp1421
g1017
F0.515546
ssI936087
(dp1422
g1017
F0.102212
sssI934294
(dp1423
I932378
(dp1424
g1017
F0.166337
sssI422295
(dp1425
I61386
(dp1426
g1017
F0.021096
sssI928153
(dp1427
I928154
(dp1428
g1017
F0.186179
ssI227460
g1115
ssI928154
(dp1429
I911876
(dp1430
g1017
F0.20239
ssI243845
g1122
sI207848
(dp1431
g1017
F0.136912
ssI912265
(dp1432
g1017
F0.267858
ssI918852
(dp1433
g1017
F0.169914
ssI925612
(dp1434
g1017
F0.334137
ssI905391
g1190
sI61386
(dp1435
g1017
F0.030138
ssI928153
g1428
sI911738
g1387
sI906042
(dp1436
g1017
F0.295366
ssI910431
(dp1437
g1017
F0.312514
sssI932258
(dp1438
I927809
g1069
sI913996
(dp1439
g1017
F0.089816
ssI931510
(dp1440
g1017
F0.103028
sssI250291
(dp1441
I257272
(dp1442
g1017
F0.167024
ssI905394
g1195
sI932965
(dp1443
g1017
F0.127822
sssI928191
(dp1444
I926500
(dp1445
g1017
F0.113747
sssI905666
(dp1446
I928050
g1316
sI911876
(dp1447
g1017
F0.170307
ssI906402
(dp1448
g1017
F0.20695
ssI921342
(dp1449
g1017
F0.24703
sssI254414
(dp1450
I291451
(dp1451
g1017
F0.246205
ssI223708
(dp1452
g1017
F0.202749
ssI911999
(dp1453
g1017
F0.088612
sssI260560
(dp1454
I454632
(dp1455
g1017
F0.475683
sssI926161
(dp1456
I933152
(dp1457
g1017
F0.10417
ssI931831
(dp1458
g1017
F0.100384
ssI906756
(dp1459
g1017
F0.118273
ssI906806
(dp1460
g1017
F0.145117
ssI936679
(dp1461
g1017
F0.108507
ssI932042
g1220
sI217835
(dp1462
g1017
F0.125322
ssI928310
(dp1463
g1017
F0.093841
ssI931191
(dp1464
g1017
F0.123213
ssI911064
(dp1465
g1017
F0.100717
ssI934554
(dp1466
g1017
F0.098983
ssI935196
(dp1467
g1017
F0.089812
ssI931551
(dp1468
g1017
F0.093701
sssI930259
(dp1469
I906402
(dp1470
g1017
F0.124774
ssI243845
g1121
sI919942
g1400
sI906987
(dp1471
g1017
F0.442207
ssI217806
(dp1472
g1017
F0.111576
ssI909871
(dp1473
g1017
F0.479706
ssI919856
g1313
sI922806
(dp1474
g1017
F0.134486
ssI925272
(dp1475
g1017
F0.188397
ssI906042
(dp1476
g1017
F0.184155
ssI913566
g1155
ssI926165
(dp1477
I256401
g1421
sI922287
(dp1478
g1017
F0.125985
ssI932005
g1178
sI932487
(dp1479
g1017
F0.344032
sssI481750
(dp1480
I809743
(dp1481
g1017
F0.421202
ssI260391
g1305
ssI223708
(dp1482
I927296
(dp1483
g1017
F0.145457
ssI905105
(dp1484
g1017
F0.120861
ssI253643
(dp1485
g1017
F0.134008
ssI254414
g1452
sI257519
(dp1486
g1017
F0.384415
ssI925553
(dp1487
g1017
F0.104787
sssI936413
(dp1488
I61386
(dp1489
g1017
F0.030138
ssI932378
(dp1490
g1017
F0.14376
ssI934570
(dp1491
g1017
F0.166796
sssI905694
(dp1492
I909072
(dp1493
g1017
F0.189352
sssI618978
(dp1494
I809743
(dp1495
g1017
F0.527803
sssI261204
(dp1496
I916992
(dp1497
g1017
F0.10231
sssI299514
(dp1498
I232561
(dp1499
g1017
F0.081081
ssI7163
(dp1500
g1017
F0.391119
sssI924159
(dp1501
I911166
(dp1502
g1017
F0.147506
ssI904862
(dp1503
g1017
F0.16974
ssI919942
g1402
ssI918016
(dp1504
I913366
(dp1505
g1017
F0.285338
sssI911876
(dp1506
I925425
(dp1507
g1017
F0.181899
ssI928154
g1430
sI927709
(dp1508
g1017
F0.113727
ssI905666
g1447
sI909871
(dp1509
g1017
F0.213271
sssI911882
(dp1510
I927809
g1070
sI905138
(dp1511
g1017
F0.395111
ssI255439
(dp1512
g1017
F0.161154
ssI905266
g1311
sI919061
(dp1513
g1017
F0.167678
ssI927833
g1097
sI925173
(dp1514
g1017
F0.599475
sssI168463
(dp1515
I210141
(dp1516
g1017
F0.350737
sssI913942
(dp1517
I364432
(dp1518
g1017
F0.922681
ssI222089
(dp1519
g1017
F0.230955
ssI916781
(dp1520
g1017
F0.184397
ssI908752
(dp1521
g1017
F0.441618
ssI246993
(dp1522
g1017
F0.922681
ssI210141
(dp1523
g1017
F0.148785
sssI932378
(dp1524
I350880
(dp1525
g1017
F0.097954
ssI931831
(dp1526
g1017
F0.155216
ssI216963
(dp1527
g1017
F0.146756
ssI931383
(dp1528
g1017
F0.137143
ssI932101
g1291
sI932071
g1262
sI222089
(dp1529
g1017
F0.091474
ssI932042
g1223
sI936679
(dp1530
g1017
F0.27023
ssI933488
(dp1531
g1017
F0.134012
ssI931249
(dp1532
g1017
F0.218742
ssI256820
(dp1533
g1017
F0.105998
ssI934294
g1424
sI931191
(dp1534
g1017
F0.251644
ssI934520
(dp1535
g1017
F0.209155
ssI257243
(dp1536
g1017
F0.141216
ssI936413
g1490
sI932799
(dp1537
g1017
F0.181194
sssI918046
(dp1538
I927809
g1075
sI922345
(dp1539
g1017
F0.107468
ssI934026
g1126
sI934635
g1396
sI230126
(dp1540
g1017
F0.115074
ssI935086
(dp1541
g1017
F0.117923
ssI934570
(dp1542
g1017
F0.148594
ssI936767
(dp1543
g1017
F0.136416
sssI934437
(dp1544
I934492
(dp1545
g1017
F0.134087
sssI909867
(dp1546
I927809
g1071
sI922806
(dp1547
g1017
F0.131336
ssI911999
(dp1548
g1017
F0.174348
sssI25134
(dp1549
I240608
(dp1550
g1017
F0.168153
ssI209475
(dp1551
g1017
F0.171597
ssI245548
(dp1552
g1017
F0.165751
ssI253708
(dp1553
g1017
F0.160105
ssI247535
(dp1554
g1017
F0.165751
ssI294650
(dp1555
g1017
F0.177648
ssI339195
(dp1556
g1017
F0.124353
ssI254077
g1111
ssI909871
(dp1557
I919696
g1137
sI926560
(dp1558
g1017
F0.090376
ssI930259
g1473
sI911876
g1509
sI925605
(dp1559
g1017
F0.181044
sssI932406
(dp1560
I910562
(dp1561
g1017
F0.137173
ssI936679
(dp1562
g1017
F0.191409
ssI936746
(dp1563
g1017
F0.099402
ssI256876
(dp1564
g1017
F0.172382
ssI931539
(dp1565
g1017
F0.128753
ssI936245
g1327
sI932470
(dp1566
g1017
F0.178083
ssI932987
(dp1567
g1017
F0.166763
ssI250556
(dp1568
g1017
F0.098893
ssI920126
(dp1569
g1017
F0.092939
sssI913090
(dp1570
I927269
(dp1571
g1017
F0.519209
ssI918985
(dp1572
g1017
F0.188401
ssI61386
(dp1573
g1017
F0.030138
ssI919597
g1056
sI911064
(dp1574
g1017
F0.115787
ssI910458
(dp1575
g1017
F0.095558
sssI930361
(dp1576
I256673
(dp1577
g1017
F0.31405
ssI921810
g1233
sI256957
(dp1578
g1017
F0.410697
sssI926267
(dp1579
I913366
(dp1580
g1017
F0.196075
ssI906095
(dp1581
g1017
F0.223193
sssI924221
(dp1582
I910913
(dp1583
g1017
F0.224788
ssI917543
g1270
sI935532
(dp1584
g1017
F0.156295
ssI922572
(dp1585
g1017
F0.64664
ssI906095
(dp1586
g1017
F0.157657
ssI930741
(dp1587
g1017
F0.444648
ssI936566
(dp1588
g1017
F0.1554
ssI934520
(dp1589
g1017
F0.108853
sssI920126
(dp1590
I916992
(dp1591
g1017
F0.101378
ssI248642
(dp1592
g1017
F0.188509
ssI216963
(dp1593
g1017
F0.171391
ssI247126
(dp1594
g1017
F0.104438
ssI932406
g1569
sI928310
(dp1595
g1017
F0.210874
ssI932941
(dp1596
g1017
F0.118239
ssI932976
(dp1597
g1017
F0.152585
ssI208147
(dp1598
g1017
F0.922681
ssI934998
(dp1599
g1017
F0.099526
ssI911738
g1388
ssI582207
(dp1600
I7253
(dp1601
g1017
F0.222418
sssI905792
(dp1602
I931347
(dp1603
g1017
F0.162974
sssI209475
(dp1604
I267
(dp1605
g1017
F0.264856
ssI25134
g1551
ssI913996
(dp1606
I932258
g1439
sI920787
(dp1607
g1017
F0.134102
sssI25168
(dp1608
I230058
(dp1609
g1017
F0.171832
ssI249619
(dp1610
g1017
F0.182027
ssI239940
g1344
sI225243
(dp1611
g1017
F0.199087
sssI291418
(dp1612
I251843
(dp1613
g1017
F0.037911
ssI888870
g1049
ssI934492
(dp1614
I933152
(dp1615
g1017
F0.162833
ssI908417
(dp1616
g1017
F0.119195
ssI932004
g1174
sI934437
g1545
sI936757
(dp1617
g1017
F0.13728
ssI934965
(dp1618
g1017
F0.205542
ssI910046
(dp1619
g1017
F0.289504
ssI922303
(dp1620
g1017
F0.14216
sssI388538
(dp1621
I164160
g1338
ssI502374
(dp1622
I490088
(dp1623
g1017
F0.681072
ssI6465
(dp1624
g1017
F0.525772
ssI479987
(dp1625
g1017
F0.642193
sssI490088
(dp1626
I587027
(dp1627
g1017
F0.107512
ssI212131
(dp1628
g1017
F0.040566
ssI502374
g1623
sI4903
(dp1629
g1017
F0.211936
sssI905834
(dp1630
I260993
(dp1631
g1017
F0.303706
ssI61386
(dp1632
g1017
F0.030138
ssI918852
(dp1633
g1017
F0.320913
sssI381549
(dp1634
I568355
(dp1635
g1017
F0.487351
sssI936566
(dp1636
I934965
(dp1637
g1017
F0.194079
ssI934029
g1131
sI924221
g1588
ssI25207
(dp1638
I239566
(dp1639
g1017
F0.273509
ssI247535
(dp1640
g1017
F0.269603
sssI934520
(dp1641
I219202
g1082
sI926020
(dp1642
g1017
F0.093729
ssI908902
(dp1643
g1017
F0.116566
ssI934554
(dp1644
g1017
F0.246421
ssI935196
(dp1645
g1017
F0.152954
ssI926090
g1411
sI931539
(dp1646
g1017
F0.190369
ssI904916
(dp1647
g1017
F0.104893
ssI936245
g1329
sI932378
g1535
sI931867
g1040
sI250556
(dp1648
g1017
F0.095174
ssI924221
g1589
ssI914042
(dp1649
I936304
g1369
sI926090
g1412
sI922303
(dp1650
g1017
F0.152671
sssI291451
(dp1651
I219202
g1084
sI208147
(dp1652
g1017
F0.225107
ssI254414
g1451
ssI911999
(dp1653
I61386
(dp1654
g1017
F0.030138
ssI909867
g1548
sI254414
g1453
sI931249
(dp1655
g1017
F0.448341
ssI914995
(dp1656
g1017
F0.094991
ssI922806
(dp1657
g1017
F0.118666
ssI914490
(dp1658
g1017
F0.135437
ssI913566
g1156
ssI932487
(dp1659
I917543
g1266
sI931467
(dp1660
g1017
F0.195805
ssI908752
(dp1661
g1017
F0.224449
ssI905394
g1193
sI926165
g1479
sI294650
(dp1662
g1017
F0.162729
ssI932799
(dp1663
g1017
F0.116879
sssI504456
(dp1664
I587027
(dp1665
g1017
F0.117019
sssI477634
(dp1666
I13864
(dp1667
g1017
F0.287976
ssI239937
g1340
sI221074
(dp1668
g1017
F0.037858
ssI809813
(dp1669
g1017
F0.403412
ssI7253
(dp1670
g1017
F0.185932
sssI926350
(dp1671
I239362
(dp1672
g1017
F0.487399
ssI912265
(dp1673
g1017
F0.346334
ssI919882
g1353
sI926836
(dp1674
g1017
F0.094537
ssI925272
(dp1675
g1017
F0.230426
ssI911738
g1382
sI224156
(dp1676
g1017
F0.141234
ssI61386
(dp1677
g1017
F0.030138
ssI904862
(dp1678
g1017
F0.501476
sssI344722
(dp1679
I906248
(dp1680
g1017
F0.946551
ssI455585
(dp1681
g1017
F0.806363
sssI928406
(dp1682
I257153
(dp1683
g1017
F0.114489
ssI930022
g1255
sI904973
(dp1684
g1017
F0.701528
ssI255439
(dp1685
g1017
F0.156928
ssI284883
(dp1686
g1017
F0.157754
ssI209103
g1230
sI256157
g1146
sI916990
(dp1687
g1017
F0.16536
sssI934554
(dp1688
I916992
(dp1689
g1017
F0.099192
ssI932987
(dp1690
g1017
F0.306385
ssI933737
(dp1691
g1017
F0.13584
ssI926090
g1414
sI249484
(dp1692
g1017
F0.097533
ssI932941
(dp1693
g1017
F0.115218
ssI931413
(dp1694
g1017
F0.177726
ssI936304
g1370
sI926161
g1466
sI932565
(dp1695
g1017
F0.105352
ssI930711
(dp1696
g1017
F0.090009
ssI934520
g1644
sI911738
g1386
sI932799
(dp1697
g1017
F0.160637
ssI936757
(dp1698
g1017
F0.182983
sssI934557
(dp1699
I931831
(dp1700
g1017
F0.174809
ssI219202
g1085
sI216963
(dp1701
g1017
F0.199495
ssI926090
g1407
sI253111
(dp1702
g1017
F0.154174
ssI905105
(dp1703
g1017
F0.102322
ssI936245
g1331
sI931191
(dp1704
g1017
F0.145975
ssI257658
(dp1705
g1017
F0.099789
ssI931551
(dp1706
g1017
F0.121697
sssI350880
(dp1707
I926020
(dp1708
g1017
F0.100112
ssI932378
g1525
sI366388
(dp1709
g1017
F0.098507
ssI936087
(dp1710
g1017
F0.137453
sssI256673
(dp1711
I930593
(dp1712
g1017
F0.132459
ssI926756
(dp1713
g1017
F0.191783
ssI908752
(dp1714
g1017
F0.174727
ssI249623
(dp1715
g1017
F0.189806
ssI930361
g1577
sI247386
(dp1716
g1017
F0.038877
ssI929787
(dp1717
g1017
F0.149629
ssI907423
g1158
ssI545445
(dp1718
I39771
(dp1719
g1017
F0.346375
ssI30844
g1107
ssI926376
(dp1720
I909072
(dp1721
g1017
F0.254778
sssI909993
(dp1722
I224156
(dp1723
g1017
F0.090934
sssI934570
(dp1724
I927809
g1074
sI934635
g1395
sI934678
(dp1725
g1017
F0.264362
ssI936413
g1491
sI918046
g1542
sI931135
(dp1726
g1017
F0.120565
sssI773575
(dp1727
I4956
(dp1728
g1017
F0.523615
sssI932526
(dp1729
I932042
g1218
sI931539
(dp1730
g1017
F0.106033
ssI366388
(dp1731
g1017
F0.099074
ssI248642
(dp1732
g1017
F0.141359
ssI931551
(dp1733
g1017
F0.135068
sssI922287
(dp1734
I926165
g1478
sI249623
(dp1735
g1017
F0.15865
sssI920241
(dp1736
I906929
(dp1737
g1017
F0.332663
ssI262070
(dp1738
g1017
F0.266032
ssI921342
(dp1739
g1017
F0.130615
ssI283086
g1208
sI227383
g1063
ssI254649
(dp1740
I908752
(dp1741
g1017
F0.16505
ssI931135
(dp1742
g1017
F0.125117
ssI25197
(dp1743
g1017
F0.307653
ssI931013
(dp1744
g1017
F0.279599
ssI260391
g1306
ssI905915
(dp1745
I928672
(dp1746
g1017
F0.172892
ssI929439
(dp1747
g1017
F0.119784
sssI250556
(dp1748
I930821
(dp1749
g1017
F0.169753
ssI260391
g1308
sI936746
(dp1750
g1017
F0.117379
ssI931539
(dp1751
g1017
F0.119195
ssI936757
(dp1752
g1017
F0.125247
ssI932406
g1568
sI934520
g1648
sI931867
g1043
sI256157
g1151
sI254133
(dp1753
g1017
F0.105287
sssI922303
(dp1754
I933152
(dp1755
g1017
F0.126792
ssI935737
(dp1756
g1017
F0.255199
ssI914042
g1650
sI907423
g1160
sI934492
g1620
sI932799
(dp1757
g1017
F0.202482
sssI912068
(dp1758
I212377
(dp1759
g1017
F0.491552
ssI41284
(dp1760
g1017
F0.036124
sssI928453
(dp1761
I61386
(dp1762
g1017
F0.030138
ssI243845
g1119
sI922806
(dp1763
g1017
F0.09376
sssI166606
(dp1764
I826
(dp1765
g1017
F0.706964
ssI209103
g1229
ssI4819
(dp1766
I578560
(dp1767
g1017
F0.218093
ssI239362
(dp1768
g1017
F0.215449
ssI465059
(dp1769
g1017
F0.203488
ssI377861
g1045
sI283086
g1209
sI210141
(dp1770
g1017
F0.223047
ssI466243
(dp1771
g1017
F0.189861
ssI489365
(dp1772
g1017
F0.218093
ssI510138
g1211
sI39771
(dp1773
g1017
F0.195402
ssI520538
g1367
sI211813
(dp1774
g1017
F0.223047
sssI565972
(dp1775
I479302
g1087
sI888870
g1050
sI3053
(dp1776
g1017
F0.268421
sssI932565
(dp1777
I216963
(dp1778
g1017
F0.113126
ssI255653
(dp1779
g1017
F0.104688
ssI933767
(dp1780
g1017
F0.213825
ssI61386
(dp1781
g1017
F0.030138
ssI253708
(dp1782
g1017
F0.145876
ssI932976
(dp1783
g1017
F0.189739
ssI936245
g1326
sI934554
g1695
sI931551
(dp1784
g1017
F0.251024
ssI936757
(dp1785
g1017
F0.137312
sssI930518
(dp1786
I923976
g1350
sI370713
g1030
sI927709
(dp1787
g1017
F0.19986
ssI217806
(dp1788
g1017
F0.383628
ssI919273
(dp1789
g1017
F0.317193
sssI728
(dp1790
I298616
(dp1791
g1017
F0.170971
ssI398953
(dp1792
g1017
F0.170971
ssI387981
(dp1793
g1017
F0.170971
sssI256732
(dp1794
I932976
(dp1795
g1017
F0.113268
ssI936757
(dp1796
g1017
F0.115696
sssI912506
(dp1797
I224156
(dp1798
g1017
F0.306141
sssI910046
(dp1799
I936304
g1371
sI934492
g1619
ssI936679
(dp1800
I933488
(dp1801
g1017
F0.112679
ssI932470
(dp1802
g1017
F0.158121
ssI931249
(dp1803
g1017
F0.2306
ssI932071
g1258
sI936304
g1372
sI926161
g1461
sI366388
(dp1804
g1017
F0.098069
ssI932406
g1562
sI932378
g1530
sI931551
(dp1805
g1017
F0.109565
sssI922345
(dp1806
I230126
(dp1807
g1017
F0.104954
ssI918046
g1539
ssI217835
(dp1808
I926161
g1462
ssI10988
(dp1809
I3436
(dp1810
g1017
F0.527803
sssI230126
(dp1811
I922345
g1807
sI61386
(dp1812
g1017
F0.030138
ssI918046
g1540
ssI479987
(dp1813
I507176
(dp1814
g1017
F0.69644
ssI376192
(dp1815
g1017
F0.138932
ssI809813
(dp1816
g1017
F0.437383
ssI502374
g1625
sI7253
(dp1817
g1017
F0.202944
sssI928517
(dp1818
I934840
(dp1819
g1017
F0.173319
ssI222084
(dp1820
g1017
F0.217953
ssI911294
(dp1821
g1017
F0.433843
sssI257153
(dp1822
I220896
(dp1823
g1017
F0.166866
ssI905105
(dp1824
g1017
F0.119461
ssI61386
(dp1825
g1017
F0.030138
ssI931315
(dp1826
g1017
F0.1319
ssI928406
g1683
ssI269065
(dp1827
I455586
(dp1828
g1017
F0.333395
sssI1117
(dp1829
I261079
(dp1830
g1017
F0.458672
sssI809743
(dp1831
I618978
g1495
sI878595
g1024
sI873253
(dp1832
g1017
F0.455061
ssI817098
(dp1833
g1017
F0.286911
ssI456048
(dp1834
g1017
F0.390623
ssI481750
g1481
ssI934678
(dp1835
I61386
(dp1836
g1017
F0.030138
ssI934570
g1725
sI932004
g1171
sI908637
(dp1837
g1017
F0.29168
sssI133
(dp1838
I350369
(dp1839
g1017
F0.282587
sssI930593
(dp1840
I256673
g1712
ssI926500
(dp1841
I926020
(dp1842
g1017
F0.105677
ssI932101
g1281
sI933767
(dp1843
g1017
F0.206537
ssI931831
(dp1844
g1017
F0.140557
ssI931539
(dp1845
g1017
F0.156799
ssI928310
(dp1846
g1017
F0.171099
ssI249623
(dp1847
g1017
F0.097883
ssI931748
(dp1848
g1017
F0.119958
ssI928191
g1445
ssI873253
(dp1849
I809743
g1832
ssI4903
(dp1850
I490088
g1629
sI350369
(dp1851
g1017
F0.168607
sssI4904
(dp1852
I208147
(dp1853
g1017
F0.27682
sssI936746
(dp1854
I935107
(dp1855
g1017
F0.165446
ssI930821
(dp1856
g1017
F0.122729
ssI932406
g1563
sI932470
(dp1857
g1017
F0.12318
ssI931867
g1037
sI250556
g1750
ssI256820
(dp1858
I933152
(dp1859
g1017
F0.098995
ssI932042
g1221
sI908752
(dp1860
g1017
F0.102608
ssI931539
(dp1861
g1017
F0.108304
ssI366388
(dp1862
g1017
F0.131548
ssI262070
(dp1863
g1017
F0.111731
ssI925143
(dp1864
g1017
F0.236187
ssI932378
g1533
ssI936757
(dp1865
I912384
g1019
sI254133
(dp1866
g1017
F0.111042
ssI219202
g1081
sI256732
g1796
sI250556
g1752
sI933737
(dp1867
g1017
F0.120979
ssI257042
(dp1868
g1017
F0.124992
ssI904916
(dp1869
g1017
F0.100449
ssI932565
g1785
sI927196
(dp1870
g1017
F0.113439
ssI222089
(dp1871
g1017
F0.121249
ssI934554
g1698
sI257243
(dp1872
g1017
F0.163366
ssI934492
g1617
sI911738
g1384
sI936767
(dp1873
g1017
F0.180749
sssI924473
(dp1874
I932976
(dp1875
g1017
F0.108788
ssI931551
(dp1876
g1017
F0.119112
sssI906042
(dp1877
I928154
g1436
sI930259
g1476
ssI291643
(dp1878
I908902
(dp1879
g1017
F0.29276
sssI936767
(dp1880
I921486
(dp1881
g1017
F0.257307
ssI932004
g1175
sI936757
g1873
sI918046
g1543
sI935086
(dp1882
g1017
F0.280786
sssI910145
(dp1883
I224156
(dp1884
g1017
F0.188264
ssI927269
(dp1885
g1017
F0.234383
ssI262070
(dp1886
g1017
F0.130602
sssI248642
(dp1887
I910562
(dp1888
g1017
F0.211697
ssI931191
(dp1889
g1017
F0.180792
ssI932470
(dp1890
g1017
F0.094625
ssI932042
g1215
sI936087
(dp1891
g1017
F0.123178
ssI932526
g1732
sI247126
(dp1892
g1017
F0.106756
ssI930711
(dp1893
g1017
F0.105094
ssI932987
(dp1894
g1017
F0.151869
ssI920126
g1592
ssI166728
(dp1895
I3053
(dp1896
g1017
F0.463853
sssI910157
(dp1897
I927809
g1072
sI931315
(dp1898
g1017
F0.160314
ssI904973
(dp1899
g1017
F0.555332
ssI255439
(dp1900
g1017
F0.16968
ssI927833
g1098
ssI809813
(dp1901
I782410
g1089
sI479987
g1816
sI477634
g1669
sI811254
g1274
sI877661
(dp1902
g1017
F0.362453
sssI4951
(dp1903
I456048
(dp1904
g1017
F0.24893
ssI233844
g1377
ssI39771
(dp1905
I20283
(dp1906
g1017
F0.555461
ssI4819
g1773
sI545445
g1719
ssI4956
(dp1907
I773574
(dp1908
g1017
F0.523615
ssI773575
g1728
ssI826
(dp1909
I189812
(dp1910
g1017
F0.252994
ssI166606
g1765
ssI926560
(dp1911
I908902
(dp1912
g1017
F0.106492
ssI909871
g1558
ssI328547
(dp1913
I6465
(dp1914
g1017
F0.218923
ssI18293
(dp1915
g1017
F0.223813
sssI322404
(dp1916
I171168
(dp1917
g1017
F0.149166
ssI239544
(dp1918
g1017
F0.090543
sssI932709
(dp1919
I932976
(dp1920
g1017
F0.127233
sssI492395
(dp1921
I587027
(dp1922
g1017
F0.08809
sssI256876
(dp1923
I932101
g1285
sI932071
g1259
sI222089
(dp1924
g1017
F0.093068
ssI926090
g1406
sI933767
(dp1925
g1017
F0.112045
ssI931249
(dp1926
g1017
F0.129203
ssI936245
g1325
sI932406
g1564
sI933737
(dp1927
g1017
F0.106906
ssI935196
(dp1928
g1017
F0.160764
ssI931413
(dp1929
g1017
F0.147715
sssI906095
(dp1930
I222084
(dp1931
g1017
F0.242415
ssI919273
(dp1932
g1017
F0.115985
ssI935737
(dp1933
g1017
F0.307413
ssI926267
g1581
sI924221
g1586
sI932799
(dp1934
g1017
F0.310823
sssI934781
(dp1935
I61386
(dp1936
g1017
F0.030138
ssI931347
(dp1937
g1017
F0.102153
sssI265086
(dp1938
I218507
(dp1939
g1017
F0.092755
ssI239940
g1348
ssI260993
(dp1940
I905834
g1631
sI254158
g1225
sI905391
g1182
sI908947
(dp1941
g1017
F0.524191
ssI914490
(dp1942
g1017
F0.103402
ssI230058
(dp1943
g1017
F0.232546
sssI222084
(dp1944
I932965
(dp1945
g1017
F0.247398
ssI928517
g1820
sI906095
g1931
ssI363399
(dp1946
I61386
(dp1947
g1017
F0.021096
sssI914312
(dp1948
I256957
(dp1949
g1017
F0.422923
sssI912265
(dp1950
I243845
g1120
sI906987
(dp1951
g1017
F0.172709
ssI926350
g1673
sI905391
g1186
sI928154
g1432
sI904862
(dp1952
g1017
F0.136047
sssI936087
(dp1953
I350880
g1710
sI248642
g1891
sI931748
(dp1954
g1017
F0.118417
ssI931383
(dp1955
g1017
F0.115303
ssI256401
g1422
sI936245
g1328
sI930711
(dp1956
g1017
F0.115351
ssI257243
(dp1957
g1017
F0.147923
sssI906125
(dp1958
I220896
(dp1959
g1017
F0.179673
ssI927833
g1099
ssI930711
(dp1960
I248642
g1893
sI931539
(dp1961
g1017
F0.122722
ssI934998
(dp1962
g1017
F0.104533
ssI936087
g1956
sI934554
g1696
sI935100
(dp1963
g1017
F0.123358
sssI930712
(dp1964
I913366
(dp1965
g1017
F0.269406
sssI224156
(dp1966
I910145
g1884
sI929476
(dp1967
g1017
F0.190318
ssI906806
(dp1968
g1017
F0.124776
ssI204104
(dp1969
g1017
F0.150367
ssI909993
g1723
sI926350
g1676
sI262070
(dp1970
g1017
F0.095473
ssI917717
g1242
sI922806
(dp1971
g1017
F0.17085
ssI914618
(dp1972
g1017
F0.130473
ssI911064
(dp1973
g1017
F0.486079
ssI218585
(dp1974
g1017
F0.109983
ssI912506
g1798
sI254077
g1110
ssI928672
(dp1975
I909072
(dp1976
g1017
F0.129399
ssI927833
g1095
sI905915
g1746
sI249623
(dp1977
g1017
F0.286792
sssI455585
(dp1978
I20119
(dp1979
g1017
F0.51837
ssI344722
g1681
sI530595
g1164
sI630324
(dp1980
g1017
F0.298867
ssI260391
g1302
ssI455586
(dp1981
I269065
g1828
sI630324
(dp1982
g1017
F0.333395
ssI525975
(dp1983
g1017
F0.301257
sssI328613
(dp1984
I164992
(dp1985
g1017
F0.149821
ssI6465
(dp1986
g1017
F0.218923
ssI41284
(dp1987
g1017
F0.025287
sssI910246
(dp1988
I927268
(dp1989
g1017
F0.38519
sssI929267
(dp1990
I914490
(dp1991
g1017
F0.135365
ssI926836
(dp1992
g1017
F0.105325
sssI930741
(dp1993
I61386
(dp1994
g1017
F0.030138
ssI924221
g1587
sI917543
g1267
ssI934840
(dp1995
I928517
g1819
sI911294
(dp1996
g1017
F0.106635
sssI256957
(dp1997
I914312
g1949
sI930361
g1578
sI905394
g1199
sI249619
(dp1998
g1017
F0.427979
sssI932799
(dp1999
I912384
g1021
sI932378
g1537
sI931191
(dp2000
g1017
F0.176001
ssI930821
(dp2001
g1017
F0.111025
ssI932487
g1663
sI222089
(dp2002
g1017
F0.100901
ssI933767
(dp2003
g1017
F0.116625
ssI911738
g1389
sI932941
(dp2004
g1017
F0.152455
ssI906095
g1934
sI254133
(dp2005
g1017
F0.093689
ssI257143
(dp2006
g1017
F0.131355
ssI934554
g1697
sI257243
(dp2007
g1017
F0.125108
ssI256157
g1152
sI922303
g1757
ssI350369
(dp2008
I3053
(dp2009
g1017
F0.175832
ssI133
g1839
sI4903
g1851
ssI922572
(dp2010
I933737
(dp2011
g1017
F0.100946
ssI61386
(dp2012
g1017
F0.030138
ssI931539
(dp2013
g1017
F0.119423
ssI924221
g1585
sI928310
(dp2014
g1017
F0.098441
sssI465059
(dp2015
I4819
g1769
sI217350
g1295
ssI261079
(dp2016
I284883
(dp2017
g1017
F0.183319
ssI1117
g1830
sI227367
g1053
ssI574429
(dp2018
I13864
(dp2019
g1017
F0.321417
sssI240608
(dp2020
I165900
g1028
sI25134
g1550
ssI207847
(dp2021
I207848
(dp2022
g1017
F0.553608
sssI207848
(dp2023
I928154
g1431
sI207847
g2022
ssI3053
(dp2024
I166728
g1896
sI350369
g2009
sI203922
(dp2025
g1017
F0.242632
ssI565972
g1776
ssI3055
(dp2026
I203922
(dp2027
g1017
F0.356037
ssI335990
g1105
ssI7163
(dp2028
I299514
g1500
ssI578560
(dp2029
I4819
g1767
sI7253
(dp2030
g1017
F0.196229
sssI232451
(dp2031
I927243
(dp2032
g1017
F0.191437
ssI904916
(dp2033
g1017
F0.221245
sssI930821
(dp2034
I936746
g1856
sI250556
g1749
sI932799
g2001
ssI906248
(dp2035
I919273
(dp2036
g1017
F0.243406
ssI344722
g1680
ssI916491
(dp2037
I257272
(dp2038
g1017
F0.283491
ssI61386
(dp2039
g1017
F0.030138
ssI262070
(dp2040
g1017
F0.132676
ssI905391
g1188
ssI910348
(dp2041
I914490
(dp2042
g1017
F0.528761
ssI260477
g1393
ssI353297
(dp2043
I13864
(dp2044
g1017
F0.299322
sssI257042
(dp2045
I932470
(dp2046
g1017
F0.099146
ssI253111
(dp2047
g1017
F0.115172
ssI936757
g1868
sI931413
(dp2048
g1017
F0.102372
ssI932101
g1287
ssI916654
(dp2049
I909072
(dp2050
g1017
F0.144795
sssI3094
(dp2051
I505160
(dp2052
g1017
F0.25588
ssI476065
(dp2053
g1017
F0.25588
ssI501282
(dp2054
g1017
F0.25588
ssI568355
(dp2055
g1017
F0.213905
sssI359448
(dp2056
I260391
g1307
sI917543
g1269
ssI211993
(dp2057
I171168
(dp2058
g1017
F0.205836
ssI138834
(dp2059
g1017
F0.103851
sssI322592
(dp2060
I927196
(dp2061
g1017
F0.922681
ssI260391
g1301
ssI568355
(dp2062
I381549
g1635
sI3094
g2055
ssI926756
(dp2063
I256673
g1713
ssI934965
(dp2064
I934492
g1618
sI934029
g1130
sI936566
g1637
ssI914490
(dp2065
I260993
g1942
sI249619
(dp2066
g1017
F0.124905
ssI910348
g2042
sI929267
g1991
sI247896
g1093
sI926020
(dp2067
g1017
F0.589544
ssI911999
g1658
ssI254133
(dp2068
I61386
(dp2069
g1017
F0.030138
ssI910562
(dp2070
g1017
F0.103606
ssI250556
g1753
sI936757
g1866
sI932799
g2005
ssI257095
(dp2071
I908417
(dp2072
g1017
F0.243166
ssI917543
g1265
ssI906314
(dp2073
I239362
(dp2074
g1017
F0.115697
ssI262070
(dp2075
g1017
F0.217028
ssI217806
(dp2076
g1017
F0.293162
sssI932941
(dp2077
I916992
(dp2078
g1017
F0.098482
ssI933737
(dp2079
g1017
F0.106362
ssI928310
(dp2080
g1017
F0.106149
ssI934554
g1693
sI257243
(dp2081
g1017
F0.100625
ssI935196
(dp2082
g1017
F0.100562
ssI920126
g1596
sI932799
g2004
ssI166996
(dp2083
I208147
(dp2084
g1017
F0.539299
sssI7253
(dp2085
I578560
g2030
sI477634
g1670
sI356519
g1180
sI431241
(dp2086
g1017
F0.167003
ssI479987
g1817
sI400826
(dp2087
g1017
F0.161315
ssI582207
g1601
ssI934998
(dp2088
I61386
(dp2089
g1017
F0.030138
ssI920126
g1599
sI930711
g1962
ssI877661
(dp2090
I809813
g1902
ssI910431
(dp2091
I928154
g1437
ssI932965
(dp2092
I222089
(dp2093
g1017
F0.12986
ssI905394
g1192
sI250291
g1443
sI222084
g1945
ssI932976
(dp2094
I239940
g1345
sI932709
g1920
sI926090
g1408
sI933488
(dp2095
g1017
F0.265886
ssI932565
g1783
sI924473
g1875
sI257243
(dp2096
g1017
F0.235233
ssI256732
g1795
sI932042
g1219
sI920126
g1597
ssI232561
(dp2097
I299514
g1499
sI501282
(dp2098
g1017
F0.044154
ssI489365
(dp2099
g1017
F0.040765
sssI910867
(dp2100
I927012
(dp2101
g1017
F0.290288
sssI926836
(dp2102
I907106
(dp2103
g1017
F0.161217
ssI929267
g1992
sI926350
g1674
ssI257143
(dp2104
I247386
(dp2105
g1017
F0.038877
ssI932799
g2006
sI917543
g1268
ssI910458
(dp2106
I913090
g1575
sI927709
(dp2107
g1017
F0.177989
ssI908902
(dp2108
g1017
F0.350313
sssI932987
(dp2109
I248642
g1894
sI932470
(dp2110
g1017
F0.160736
ssI908902
(dp2111
g1017
F0.095656
ssI932071
g1263
sI926090
g1413
sI933767
(dp2112
g1017
F0.205647
ssI914830
(dp2113
g1017
F0.160803
ssI933488
(dp2114
g1017
F0.14786
ssI932180
g1360
sI932406
g1567
sI934554
g1690
sI931867
g1042
sI935100
(dp2115
g1017
F0.270083
sssI853117
(dp2116
I20283
(dp2117
g1017
F0.578445
sssI164992
(dp2118
I328613
g1985
ssI908417
(dp2119
I934492
g1616
sI257095
g2072
ssI431241
(dp2120
I7253
g2086
sI174303
g1246
ssI240779
(dp2121
I454632
(dp2122
g1017
F0.475683
ssI247386
(dp2123
g1017
F0.038877
sssI926862
(dp2124
I209103
g1227
ssI203922
(dp2125
I20119
(dp2126
g1017
F0.574283
ssI3053
g2025
sI3055
g2027
ssI910485
(dp2127
I910872
(dp2128
g1017
F0.175927
ssI911064
(dp2129
g1017
F0.14026
ssI919882
g1356
sI911166
(dp2130
g1017
F0.197105
sssI255133
(dp2131
I921194
(dp2132
g1017
F0.965936
sssI171168
(dp2133
I292744
(dp2134
g1017
F0.152221
ssI211993
g2058
sI322404
g1917
ssI906402
(dp2135
I905666
g1448
sI930259
g1470
ssI212131
(dp2136
I490088
g1628
sI305032
(dp2137
g1017
F0.035392
ssI499629
(dp2138
g1017
F0.04369
ssI212377
(dp2139
g1017
F0.048295
sssI935086
(dp2140
I61386
(dp2141
g1017
F0.030138
ssI918046
g1541
sI936767
g1882
ssI5299
(dp2142
I507176
(dp2143
g1017
F0.603953
ssI554958
(dp2144
g1017
F0.579955
sssI922806
(dp2145
I918852
(dp2146
g1017
F0.465472
ssI928453
g1763
sI919942
g1401
sI909867
g1547
sI930259
g1474
sI224156
g1971
sI911999
g1657
ssI253111
(dp2147
I933152
(dp2148
g1017
F0.159204
ssI935100
(dp2149
g1017
F0.153934
ssI257042
g2047
sI935196
(dp2150
g1017
F0.144724
ssI934557
g1702
sI931551
(dp2151
g1017
F0.137833
sssI914618
(dp2152
I61386
(dp2153
g1017
F0.030138
ssI224156
g1972
sI243845
g1123
ssI935100
(dp2154
I931488
(dp2155
g1017
F0.111677
ssI931191
(dp2156
g1017
F0.25429
ssI914830
(dp2157
g1017
F0.100659
ssI933488
(dp2158
g1017
F0.120349
ssI930711
g1963
sI928310
(dp2159
g1017
F0.165116
ssI253111
g2149
sI932987
g2115
ssI42174
(dp2160
I581665
g1047
sI392680
(dp2161
g1017
F0.027459
ssI403723
g1297
sI403438
(dp2162
g1017
F0.027459
ssI397623
g1333
sI400826
(dp2163
g1017
F0.027459
ssI396699
(dp2164
g1017
F0.027459
sssI935107
(dp2165
I933152
(dp2166
g1017
F0.165167
ssI216963
(dp2167
g1017
F0.165342
ssI933737
(dp2168
g1017
F0.175472
ssI936746
g1855
sI931249
(dp2169
g1017
F0.11002
ssI931413
(dp2170
g1017
F0.130536
ssI931867
g1035
sI927196
(dp2171
g1017
F0.096893
ssI61386
(dp2172
g1017
F0.030138
sssI931013
(dp2173
I254649
g1744
ssI246993
(dp2174
I164160
g1337
sI913942
g1522
ssI920787
(dp2175
I913996
g1607
sI932004
g1168
ssI257243
(dp2176
I933152
(dp2177
g1017
F0.154866
ssI916992
(dp2178
g1017
F0.100476
ssI933767
(dp2179
g1017
F0.343478
ssI932941
g2081
sI932976
g2096
sI366388
(dp2180
g1017
F0.119679
ssI936757
g1872
sI936087
g1957
sI932378
g1536
sI931488
(dp2181
g1017
F0.101115
ssI247386
(dp2182
g1017
F0.038097
ssI931551
(dp2183
g1017
F0.256605
ssI932799
g2007
ssI210141
(dp2184
I175692
(dp2185
g1017
F0.421103
ssI916781
(dp2186
g1017
F0.154471
ssI168463
g1516
sI4819
g1770
sI913942
g1523
sI247386
(dp2187
g1017
F0.037553
sssI910562
(dp2188
I248642
g1888
sI222089
(dp2189
g1017
F0.109231
ssI253708
(dp2190
g1017
F0.097021
ssI254133
g2070
sI932406
g1561
sI911738
g1381
ssI503017
(dp2191
I587027
(dp2192
g1017
F0.115793
sssI284883
(dp2193
I930022
g1254
sI61386
(dp2194
g1017
F0.030138
ssI931315
(dp2195
g1017
F0.145554
ssI919061
(dp2196
g1017
F0.324753
ssI928406
g1686
sI261079
g2017
sI916990
(dp2197
g1017
F0.150716
sssI257272
(dp2198
I925272
(dp2199
g1017
F0.116514
ssI919882
g1357
sI916491
g2038
sI250291
g1442
ssI339195
(dp2200
I4225
g1113
sI25134
g1556
ssI918785
(dp2201
I262070
(dp2202
g1017
F0.199565
ssI919942
g1398
ssI587027
(dp2203
I504456
g1665
sI490088
g1627
sI492395
g1922
sI503017
g2192
ssI935196
(dp2204
I932101
g1292
sI931383
(dp2205
g1017
F0.122664
ssI931191
(dp2206
g1017
F0.153773
ssI256876
g1928
sI932941
g2082
sI926161
g1467
sI253111
g2150
sI934520
g1645
ssI410909
(dp2207
I61386
(dp2208
g1017
F0.021096
ssI175639
(dp2209
g1017
F0.260355
sssI933152
(dp2210
I935107
g2166
sI932470
(dp2211
g1017
F0.142589
ssI934029
g1129
sI914830
(dp2212
g1017
F0.137529
ssI926161
g1457
sI256820
g1859
sI936245
g1323
sI257243
g2177
sI253111
g2148
sI911738
g1379
sI931867
g1033
sI934492
g1615
sI922303
g1755
ssI927012
(dp2213
I927296
(dp2214
g1017
F0.503209
ssI919202
(dp2215
g1017
F0.131853
ssI910867
g2101
sI254077
g1109
ssI507176
(dp2216
I997333
(dp2217
g1017
F0.479926
ssI479987
g1814
sI41284
(dp2218
g1017
F0.040724
ssI5299
g2143
sI857981
(dp2219
g1017
F0.8
sssI916781
(dp2220
I913366
(dp2221
g1017
F0.332292
ssI224830
(dp2222
g1017
F0.102258
ssI210141
g2186
sI913942
g1520
ssI292744
(dp2223
I171168
g2134
ssI910645
(dp2224
I61386
(dp2225
g1017
F0.030138
ssI932101
g1293
sI927069
g1059
sI256215
g1244
ssI222089
(dp2226
I219202
g1079
sI926020
(dp2227
g1017
F0.106645
ssI932965
g2093
sI253708
(dp2228
g1017
F0.108201
ssI932042
g1216
sI256876
g1924
sI910562
g2189
sI905394
g1194
sI936757
g1871
sI913942
g1519
sI174105
g1139
sI932378
g1529
sI294650
(dp2229
g1017
F0.168372
ssI932799
g2002
ssI931135
(dp2230
I61386
(dp2231
g1017
F0.030138
ssI254649
g1742
sI934570
g1726
sI934026
g1127
ssI466243
(dp2232
I4819
g1771
ssI918852
(dp2233
I239362
(dp2234
g1017
F0.467867
ssI262070
(dp2235
g1017
F0.176502
ssI905834
g1633
sI904861
(dp2236
g1017
F0.490487
ssI921810
g1236
sI922806
g2146
sI928154
g1433
sI927899
g1142
sI907837
(dp2237
g1017
F0.33239
ssI911166
(dp2238
g1017
F0.249512
sssI928310
(dp2239
I912384
g1020
sI926500
g1846
sI249484
(dp2240
g1017
F0.13539
ssI922572
g2014
sI932941
g2080
sI926161
g1463
sI931413
(dp2241
g1017
F0.118233
ssI931383
(dp2242
g1017
F0.204045
ssI931748
(dp2243
g1017
F0.176768
ssI935100
g2159
sI920126
g1595
ssI505160
(dp2244
I3094
g2052
ssI387981
(dp2245
I728
g1793
sI61386
(dp2246
g1017
F0.021096
sssI247126
(dp2247
I912384
g1018
sI248642
g1892
sI931867
g1039
sI932042
g1222
sI920126
g1594
ssI908637
(dp2248
I934029
g1132
sI934678
g1837
ssI165227
(dp2249
I335990
g1104
ssI3436
(dp2250
I10988
g1810
sI477182
(dp2251
g1017
F0.457495
sssI907837
(dp2252
I919882
g1358
sI918852
g2237
sI61386
(dp2253
g1017
F0.030138
sssI456048
(dp2254
I643233
g1162
sI4951
g1904
sI809743
g1834
ssI189812
(dp2255
I927296
(dp2256
g1017
F0.846529
ssI826
g1910
sI149883
g1391
sI247386
(dp2257
g1017
F0.037136
sssI931191
(dp2258
I248642
g1889
sI216963
(dp2259
g1017
F0.145257
ssI908902
(dp2260
g1017
F0.10598
ssI932071
g1261
sI935196
g2206
sI911738
g1385
sI933737
(dp2261
g1017
F0.095258
ssI926161
g1464
sI931539
(dp2262
g1017
F0.17319
ssI927196
(dp2263
g1017
F0.12513
ssI931383
(dp2264
g1017
F0.137528
ssI932378
g1534
sI935100
g2156
sI934557
g1704
sI249484
(dp2265
g1017
F0.101851
ssI932799
g2000
ssI376192
(dp2266
I493579
g1026
sI479987
g1815
ssI464260
(dp2267
I239937
g1342
ssI218507
(dp2268
I247386
(dp2269
g1017
F0.037136
ssI61386
(dp2270
g1017
F0.030138
ssI265086
g1939
ssI914830
(dp2271
I919808
g1279
sI933152
g2212
sI933767
(dp2272
g1017
F0.166292
ssI931539
(dp2273
g1017
F0.149643
ssI932987
g2113
sI935100
g2157
ssI212377
(dp2274
I18274
(dp2275
g1017
F0.576907
ssI212131
g2139
sI912068
g1759
ssI396699
(dp2276
I42174
g2164
ssI363936
(dp2277
I366388
(dp2278
g1017
F0.287514
sssI931249
(dp2279
I935107
g2169
sI932004
g1167
sI936679
g1803
sI256876
g1926
sI366388
(dp2280
g1017
F0.12286
ssI932378
g1532
sI911999
g1655
ssI400826
(dp2281
I7253
g2087
sI42174
g2163
ssI464315
(dp2282
I239937
g1341
ssI232894
(dp2283
I174303
g1248
ssI773574
(dp2284
I61386
(dp2285
g1017
F0.031479
ssI4956
g1908
sI499629
(dp2286
g1017
F0.8
sssI476065
(dp2287
I61386
(dp2288
g1017
F0.031479
ssI3094
g2053
ssI918985
(dp2289
I913090
g1572
sI262070
(dp2290
g1017
F0.137424
sssI255439
(dp2291
I927296
(dp2292
g1017
F0.153606
ssI911882
g1512
sI253643
(dp2293
g1017
F0.169153
ssI910157
g1900
sI919061
(dp2294
g1017
F0.156143
ssI928406
g1685
sI916990
(dp2295
g1017
F0.191647
sssI908752
(dp2296
I256673
g1714
sI256820
g1860
sI254649
g1741
sI913942
g1521
sI932487
g1661
ssI925143
(dp2297
I929787
(dp2298
g1017
F0.311926
ssI256820
g1864
sI927334
(dp2299
g1017
F0.492311
sssI218585
(dp2300
I224156
g1974
sI262070
(dp2301
g1017
F0.129611
sssI927196
(dp2302
I322592
g2061
sI935107
g2171
sI245321
(dp2303
g1017
F0.101686
ssI936757
g1870
sI931191
g2263
sI931413
(dp2304
g1017
F0.118878
sssI472542
(dp2305
I221074
(dp2306
g1017
F0.039083
sssI392680
(dp2307
I42174
g2161
ssI257519
(dp2308
I223708
g1486
ssI931315
(dp2309
I257153
g1826
sI284883
g2195
sI910157
g1898
ssI925173
(dp2310
I911882
g1514
sI921194
(dp2311
g1017
F0.657892
sssI929275
(dp2312
I910872
(dp2313
g1017
F0.129163
ssI911064
(dp2314
g1017
F0.101117
ssI925612
(dp2315
g1017
F0.313212
sssI916990
(dp2316
I220896
(dp2317
g1017
F0.333001
ssI905105
(dp2318
g1017
F0.170309
ssI284883
g2197
sI928406
g1687
sI255439
g2295
ssI916992
(dp2319
I61386
(dp2320
g1017
F0.030138
ssI932941
g2078
sI261204
g1497
sI262070
(dp2321
g1017
F0.122238
ssI934554
g1689
sI257243
g2178
sI920126
g1591
sI931551
(dp2322
g1017
F0.116087
sssI906756
(dp2323
I926161
g1459
sI61386
(dp2324
g1017
F0.030138
ssI239362
(dp2325
g1017
F0.212923
sssI910858
(dp2326
I927243
(dp2327
g1017
F0.199555
ssI227383
g1064
ssI927243
(dp2328
I910858
g2327
sI232451
g2032
sI927268
(dp2329
g1017
F0.372747
ssI262070
(dp2330
g1017
F0.100702
sssI923151
(dp2331
I908902
(dp2332
g1017
F0.107209
sssI921106
(dp2333
I907106
(dp2334
g1017
F0.20745
ssI927269
(dp2335
g1017
F0.565945
sssI931347
(dp2336
I905792
g1603
sI905394
g1196
sI934781
g1937
ssI919061
(dp2337
I927296
(dp2338
g1017
F0.184642
ssI927809
g1073
sI911882
g1513
sI247535
(dp2339
g1017
F0.152653
ssI284883
g2196
sI255439
g2294
ssI175639
(dp2340
I233844
g1376
sI410909
g2209
ssI910872
(dp2341
I919273
(dp2342
g1017
F0.18344
ssI929275
g2313
sI910485
g2128
ssI501282
(dp2343
I232561
g2098
sI3094
g2054
ssI927268
(dp2344
I927243
g2329
sI910246
g1989
ssI927269
(dp2345
I910145
g1885
sI913090
g1571
sI905157
(dp2346
g1017
F0.486493
ssI919273
(dp2347
g1017
F0.184157
ssI230058
(dp2348
g1017
F0.459861
ssI921106
g2335
sI925605
(dp2349
g1017
F0.229232
sssI13864
(dp2350
I353297
g2044
sI477634
g1667
sI574429
g2019
ssI914995
(dp2351
I919882
g1355
sI911999
g1656
ssI630324
(dp2352
I455585
g1980
sI455586
g1982
ssI906806
(dp2353
I926161
g1460
sI239362
(dp2354
g1017
F0.251075
ssI224156
g1968
ssI931383
(dp2355
I932378
g1528
sI936087
g1955
sI935196
g2205
sI928310
g2242
sI931191
g2264
ssI224830
(dp2356
I247386
(dp2357
g1017
F0.038097
ssI916781
g2222
sI913366
(dp2358
g1017
F0.331386
sssI927296
(dp2359
I927012
g2214
sI904973
(dp2360
g1017
F0.51347
ssI209103
g1228
sI189812
g2256
sI919061
g2338
sI255439
g2292
sI223708
g1483
ssI910913
(dp2361
I61386
(dp2362
g1017
F0.030138
ssI924221
g1583
ssI267
(dp2363
I209475
g1605
sI227460
g1117
ssI245321
(dp2364
I927196
g2303
ssI175692
(dp2365
I210141
g2185
ssI681550
(dp2366
I554958
(dp2367
g1017
F0.421773
sssI138834
(dp2368
I211993
g2059
ssI931413
(dp2369
I935107
g2170
sI61386
(dp2370
g1017
F0.030138
ssI256876
g1929
sI257042
g2048
sI928310
g2241
sI934554
g1694
sI927196
g2304
ssI925272
(dp2371
I908902
(dp2372
g1017
F0.090925
ssI61386
(dp2373
g1017
F0.030138
ssI906987
(dp2374
g1017
F0.086271
ssI926350
g1675
sI930259
g1475
sI257272
g2199
sI230058
(dp2375
g1017
F0.094308
sssI247386
(dp2376
I220896
(dp2377
g1017
F0.037136
ssI256673
g1716
sI218507
g2269
sI227460
g1116
sI240779
g2123
sI253708
(dp2378
g1017
F0.038877
ssI251843
(dp2379
g1017
F0.040248
ssI189812
g2257
sI257243
g2182
sI338263
g1364
sI520538
g1366
sI257143
g2105
sI210141
g2187
sI224830
g2357
ssI927334
(dp2380
I913366
(dp2381
g1017
F0.135701
ssI925143
g2299
ssI908902
(dp2382
I926560
g1912
sI291643
g1879
sI923151
g2332
sI934520
g1643
sI931191
g2260
sI925272
g2372
sI910458
g2108
sI932987
g2111
ssI398953
(dp2383
I728
g1792
ssI921194
(dp2384
I255133
g2132
sI925173
g2311
ssI935532
(dp2385
I929474
(dp2386
g1017
F0.256452
ssI931467
(dp2387
g1017
F0.260635
ssI924221
g1584
ssI6465
(dp2388
I328547
g1914
sI328613
g1986
sI502374
g1624
ssI933488
(dp2389
I932101
g1286
sI936679
g1801
sI253708
(dp2390
g1017
F0.16339
ssI933767
(dp2391
g1017
F0.219156
ssI249484
(dp2392
g1017
F0.149598
ssI932976
g2095
sI931539
(dp2393
g1017
F0.223993
ssI932378
g1531
sI932987
g2114
sI935100
g2158
sI911738
g1383
ssI208147
(dp2394
I4904
g1853
sI291451
g1652
sI166996
g2084
sI920126
g1598
ssI298616
(dp2395
I728
g1791
ssI257658
(dp2396
I216963
(dp2397
g1017
F0.107975
ssI934557
g1705
ssI925315
(dp2398
I61386
(dp2399
g1017
F0.030138
ssI905391
g1184
ssI931467
(dp2400
I929474
(dp2401
g1017
F0.288749
ssI932807
(dp2402
g1017
F0.229547
ssI935532
g2387
sI932487
g1660
ssI249484
(dp2403
I216963
(dp2404
g1017
F0.09705
ssI933488
g2392
sI936245
g1324
sI928310
g2240
sI931191
g2265
sI934554
g1692
ssI25197
(dp2405
I254649
g1743
ssI908947
(dp2406
I260993
g1941
ssI20119
(dp2407
I455585
g1979
sI203922
g2126
ssI904861
(dp2408
I61386
(dp2409
g1017
F0.030138
ssI918852
g2236
ssI904862
(dp2410
I239362
(dp2411
g1017
F0.164208
ssI912265
g1952
sI926350
g1678
sI909072
(dp2412
g1017
F0.324298
ssI928050
g1321
sI927899
g1144
sI924159
g1503
ssI929439
(dp2413
I905915
g1747
ssI931488
(dp2414
I257243
g2181
sI931539
(dp2415
g1017
F0.12803
ssI932470
(dp2416
g1017
F0.103725
ssI931831
(dp2417
g1017
F0.109737
ssI931867
g1034
sI935100
g2155
ssI919202
(dp2418
I61386
(dp2419
g1017
F0.030138
ssI927012
g2215
ssI255653
(dp2420
I932565
g1779
sI931831
(dp2421
g1017
F0.110019
sssI932807
(dp2422
I931467
g2402
ssI921262
(dp2423
I220896
(dp2424
g1017
F0.125427
sssI906929
(dp2425
I920241
g1737
ssI931510
(dp2426
I932258
g1440
ssI247482
(dp2427
I220896
(dp2428
g1017
F0.209435
ssI253643
(dp2429
g1017
F0.198974
ssI256157
g1150
ssI817098
(dp2430
I809743
g1833
ssI217806
(dp2431
I906314
g2076
sI930259
g1472
sI930518
g1788
ssI929474
(dp2432
I931467
g2401
sI935532
g2386
ssI655043
(dp2433
I483724
g1416
ssI929476
(dp2434
I928050
g1317
sI224156
g1967
sI905157
(dp2435
g1017
F0.137975
sssI932470
(dp2436
I933152
g2211
sI931488
g2416
sI248642
g1890
sI216963
(dp2437
g1017
F0.168217
ssI936679
g1802
sI926090
g1410
sI256157
g1149
sI257042
g2046
sI932406
g1566
sI932987
g2110
sI936746
g1857
ssI253643
(dp2438
I925553
(dp2439
g1017
F0.182608
ssI247482
g2429
sI223708
g1485
sI255439
g2293
ssI931539
(dp2440
I931488
g2415
sI926500
g1845
sI926020
(dp2441
g1017
F0.110708
ssI926090
g1409
sI931191
g2262
sI922572
g2013
sI932526
g1730
sI933488
g2393
sI256820
g1861
sI914830
g2273
sI932406
g1565
sI930711
g1961
sI934520
g1646
sI932180
g1361
sI931748
(dp2442
g1017
F0.139298
ssI250556
g1751
sI61386
(dp2443
g1017
F0.030138
sssI904916
(dp2444
I919856
g1314
sI934520
g1647
sI232451
g2033
sI936757
g1869
sI933737
(dp2445
g1017
F0.144167
sssI239566
(dp2446
I239544
(dp2447
g1017
F0.122433
ssI260391
g1304
sI25207
g1639
ssI911064
(dp2448
I913090
g1574
sI919882
g1354
sI926161
g1465
sI910485
g2129
sI262070
(dp2449
g1017
F0.459244
ssI929275
g2314
sI224156
g1973
ssI931551
(dp2450
I916992
g2322
sI216963
(dp2451
g1017
F0.16688
ssI936679
g1805
sI61386
(dp2452
g1017
F0.030138
ssI932526
g1733
sI926161
g1468
sI932565
g1784
sI253111
g2151
sI924473
g1876
sI257243
g2183
sI934557
g1706
ssI220896
(dp2453
I257153
g1823
sI257059
g1238
sI930022
g1251
sI260391
g1309
sI906125
g1959
sI921262
g2424
sI247386
g2377
sI247482
g2428
sI916990
g2317
ssI919273
(dp2454
I927269
g2347
sI906248
g2036
sI61386
(dp2455
g1017
F0.030138
ssI906095
g1932
sI930518
g1789
sI910872
g2342
ssI906987
(dp2456
I925272
g2374
sI912265
g1951
sI930259
g1471
sI905391
g1185
ssI247535
(dp2457
I919061
g2339
sI25134
g1554
sI25207
g1640
ssI925425
(dp2458
I909072
(dp2459
g1017
F0.182309
ssI911876
g1507
sI905157
(dp2460
g1017
F0.1357
ssI913566
g1154
ssI294650
(dp2461
I222089
g2229
sI905394
g1198
sI25134
g1555
sI932487
g1662
ssI921342
(dp2462
I927809
g1068
sI905666
g1449
sI920241
g1739
ssI907009
(dp2463
I919696
g1134
sI61386
(dp2464
g1017
F0.030138
sssI239362
(dp2465
I906756
g2325
sI906314
g2074
sI926350
g1672
sI905391
g1183
sI4819
g1768
sI906806
g2354
sI918852
g2234
sI904862
g2411
ssI926020
(dp2466
I350880
g1708
sI926500
g1842
sI222089
g2227
sI931539
g2441
sI936245
g1330
sI931831
(dp2467
g1017
F0.13083
ssI934520
g1642
sI914490
g2067
ssI253708
(dp2468
I910562
g2190
sI239940
g1346
sI932101
g1283
sI222089
g2228
sI25134
g1553
sI933488
g2390
sI932565
g1782
sI247386
g2378
ssI904973
(dp2469
I927296
g2360
sI910157
g1899
sI928406
g1684
sI209103
g1231
ssI909072
(dp2470
I928672
g1976
sI926376
g1721
sI916654
g2050
sI925425
g2459
sI905694
g1493
sI904862
g2412
ssI249619
(dp2471
I25168
g1610
sI61386
(dp2472
g1017
F0.030138
ssI914490
g2066
sI256957
g1998
sI905157
(dp2473
g1017
F0.39081
sssI249623
(dp2474
I928672
g1977
sI256673
g1715
sI922287
g1735
sI926500
g1847
sI260391
g1303
ssI245548
(dp2475
I25134
g1552
sI174303
g1247
ssI366388
(dp2476
I350880
g1709
sI363936
g2278
sI931867
g1038
sI932101
g1288
sI936679
g1804
sI932526
g1731
sI931249
g2280
sI256820
g1862
sI257243
g2180
ssI42807
(dp2477
I463029
g1204
sI28518
(dp2478
g1017
F0.155508
sssI935737
(dp2479
I906095
g1933
sI932004
g1173
sI922303
g1756
ssI20283
(dp2480
I39771
g1906
sI366867
g1299
sI233844
g1375
sI853117
g2117
ssI911166
(dp2481
I918852
g2238
sI910485
g2130
sI924159
g1502
ssI907106
(dp2482
I921106
g2334
sI926836
g2103
sI911738
g1380
ssI28518
(dp2483
I42807
g2478
ssI933737
(dp2484
I935107
g2168
sI922572
g2011
sI61386
(dp2485
g1017
F0.030138
ssI256876
g1927
sI932941
g2079
sI904916
g2445
sI936757
g1867
sI931191
g2261
sI934554
g1691
sI256157
g1147
ssI925553
(dp2486
I253643
g2439
sI223708
g1487
ssI18293
(dp2487
I328547
g1915
ssI857981
(dp2488
I507176
g2219
ssI216963
(dp2489
I219202
g1077
sI935107
g2167
sI257658
g2397
sI933767
(dp2490
g1017
F0.16901
ssI926090
g1404
sI932071
g1257
sI249484
g2404
sI932565
g1778
sI932470
g2437
sI931191
g2259
sI932378
g1527
sI934557
g1701
sI920126
g1593
sI931551
g2451
ssI933767
(dp2491
I257243
g2179
sI926500
g1843
sI932101
g1282
sI256876
g1925
sI914830
g2272
sI933488
g2391
sI216963
g2490
sI932565
g1780
sI931748
(dp2492
g1017
F0.144112
ssI932987
g2112
sI932799
g2003
ssI305032
(dp2493
I212131
g2137
ssI525975
(dp2494
I455586
g1983
ssI921486
(dp2495
I932004
g1166
sI936767
g1881
ssI364432
(dp2496
I913942
g1518
ssI905105
(dp2497
I257153
g1824
sI916990
g2318
sI223708
g1484
sI934557
g1703
sI930022
g1252
ssI221074
(dp2498
I477634
g1668
sI463029
g1203
sI472542
g2306
ssI489365
(dp2499
I232561
g2099
sI4819
g1772
ssI41284
(dp2500
I507176
g2218
sI912068
g1760
sI328613
g1987
ssI673692
(dp2501
I554958
(dp2502
g1017
F0.501575
sssI931748
(dp2503
I926500
g1848
sI932101
g1290
sI933767
g2492
sI61386
(dp2504
g1017
F0.030138
ssI931539
g2442
sI928310
g2243
sI936087
g1954
ssI925605
(dp2505
I927269
g2349
sI909871
g1559
ssI925612
(dp2506
I921810
g1235
sI929275
g2315
sI928154
g1434
ssI499629
(dp2507
I212131
g2138
sI997333
(dp2508
g1017
F0.479926
ssI773574
g2286
ssI204104
(dp2509
I224156
g1969
ssI905138
(dp2510
I61386
(dp2511
g1017
F0.030138
ssI911882
g1511
sI928050
g1319
ssI262070
(dp2512
I916992
g2321
sI910145
g1886
sI916491
g2040
sI918852
g2235
sI211813
(dp2513
g1017
F0.112048
ssI918785
g2202
sI918985
g2290
sI906314
g2075
sI927243
g2330
sI919696
g1136
sI920241
g1738
sI905394
g1197
sI256820
g1863
sI227383
g1066
sI911064
g2449
sI218585
g2301
sI927899
g1143
sI224156
g1970
sI230058
(dp2514
g1017
F0.178266
ssI925943
g1277
ssI211813
(dp2515
I4819
g1774
sI243845
g1124
sI262070
g2513
ssI239544
(dp2516
I233844
g1374
sI322404
g1918
sI463029
g1202
sI239566
g2447
ssI18274
(dp2517
I212377
g2275
sI454747
g1102
ssI911294
(dp2518
I934840
g1996
sI928517
g1821
ssI251843
(dp2519
I247386
g2379
sI291418
g1613
ssI905157
(dp2520
I929476
g2435
sI927269
g2346
sI928050
g1318
sI925425
g2460
sI905394
g1200
sI249619
g2473
ssI61386
(dp2521
I916992
g2320
sI257153
g1825
sI925315
g2399
sI906756
g2324
sI932101
g1284
sI919942
g1399
sI363399
g1947
sI926090
g1405
sI218507
g2270
sI483724
g1417
sI387981
g2246
sI926350
g1677
sI358799
g1419
sI878595
g1023
sI934678
g1836
sI422295
g1426
sI928154
g1435
sI927899
g1141
sI410909
g2208
sI907423
g1159
sI476065
g2288
sI919202
g2419
sI931748
g2504
sI932005
g1177
sI910913
g2362
sI935086
g2141
sI904861
g2409
sI916491
g2039
sI905138
g2511
sI930741
g1994
sI913090
g1573
sI914618
g2153
sI919882
g1352
sI931135
g2231
sI254133
g2069
sI219202
g1080
sI935107
g2172
sI249619
g2472
sI928453
g1762
sI773574
g2285
sI932042
g1217
sI922572
g2012
sI933737
g2485
sI284883
g2194
sI931413
g2370
sI934998
g2089
sI338263
g1363
sI925272
g2373
sI927833
g1100
sI907009
g2464
sI936413
g1489
sI931551
g2452
sI910645
g2225
sI919273
g2455
sI905834
g1632
sI230126
g1812
sI907837
g2253
sI931539
g2443
sI925943
g1276
sI911999
g1654
sI934781
g1936
sI477182
(dp2522
g1017
F0.031479
ssI932565
g1781
ssI554958
(dp2523
I5299
g2144
sI673692
g2502
sI681550
g2367
ssI997333
(dp2524
I507176
g2217
sI499629
g2508
ssI913366
(dp2525
I918016
g1505
sI927334
g2381
sI916781
g2221
sI930712
g1965
sI926267
g1580
sI224830
g2358
ssI225243
(dp2526
I25168
g1611
ssI927709
(dp2527
I928050
g1320
sI911876
g1508
sI910458
g2107
sI930518
g1787
ssI454632
(dp2528
I260560
g1455
sI240779
g2122
sI239940
g1347
ssI403438
(dp2529
I42174
g2162
ssI931831
(dp2530
I931488
g2417
sI932004
g1172
sI926020
g2467
sI255653
g2421
sI926161
g1458
sI926500
g1844
sI932378
g1526
sI934557
g1700
ssI929787
(dp2531
I256673
g1717
sI925143
g2298
ssI230058
(dp2532
I260993
g1943
sI927269
g2348
sI25168
g1609
sI921810
g1234
sI262070
g2514
sI925272
g2375
ssI477182
(dp2533
I61386
g2522
sI3436
g2251
sssS'adj'
p2534
g1014
sb.